
/Users/joshuayingwhat/diy-x86os-master/start/start/source/kernel/kernel.elf:     file format elf32-i386
/Users/joshuayingwhat/diy-x86os-master/start/start/source/kernel/kernel.elf
architecture: i386, flags 0x00000112:
EXEC_P, HAS_SYMS, D_PAGED
start address 0x00010000

Program Header:
    LOAD off    0x00001000 vaddr 0x00010000 paddr 0x00010000 align 2**12
         filesz 0x00002188 memsz 0x00007030 flags rwx

Sections:
Idx Name          Size      VMA       LMA       File off  Algn
  0 .text         00001dff  00010000  00010000  00001000  2**0
                  CONTENTS, ALLOC, LOAD, READONLY, CODE
  1 .rodata       00000384  00011e00  00011e00  00002e00  2**2
                  CONTENTS, ALLOC, LOAD, READONLY, DATA
  2 .data         00000004  00012184  00012184  00003184  2**2
                  CONTENTS, ALLOC, LOAD, DATA
  3 .bss          00004e90  000121a0  000121a0  00003188  2**5
                  ALLOC
  4 .debug_line   00000f3c  00000000  00000000  00003188  2**0
                  CONTENTS, READONLY, DEBUGGING, OCTETS
  5 .debug_line_str 00000705  00000000  00000000  000040c4  2**0
                  CONTENTS, READONLY, DEBUGGING, OCTETS
  6 .debug_info   00002b27  00000000  00000000  000047c9  2**0
                  CONTENTS, READONLY, DEBUGGING, OCTETS
  7 .debug_abbrev 00000edb  00000000  00000000  000072f0  2**0
                  CONTENTS, READONLY, DEBUGGING, OCTETS
  8 .debug_aranges 00000140  00000000  00000000  000081d0  2**3
                  CONTENTS, READONLY, DEBUGGING, OCTETS
  9 .debug_str    00000d14  00000000  00000000  00008310  2**0
                  CONTENTS, READONLY, DEBUGGING, OCTETS
 10 .comment      00000012  00000000  00000000  00009024  2**0
                  CONTENTS, READONLY
 11 .debug_frame  00000dc0  00000000  00000000  00009038  2**2
                  CONTENTS, READONLY, DEBUGGING, OCTETS
SYMBOL TABLE:
00000000 l    df *ABS*	00000000 start.S.o
00010013 l       .text	00000000 gdt_reload
00000000 l    df *ABS*	00000000 task.c
000102bd l     F .text	0000001b list_node_init
000102d8 l     F .text	0000000b list_node_next
000102e3 l     F .text	0000000b list_count
000102ee l     F .text	0000000a list_first
000102f8 l     F .text	00000007 hlt
000102ff l     F .text	00000017 write_tr
000121a0 l     O .bss	00001000 idle_task_stack
000131a0 l     O .bss	00000190 task_manager
00010316 l     F .text	00000107 tss_init
00011e8c l     O .rodata	0000000a __func__.0
0001052c l     F .text	0000000a idle_task_entry
00000000 l    df *ABS*	00000000 cpu.c
000108bc l     F .text	00000028 lgdt
000108e4 l     F .text	0000001a far_jump
00013340 l     O .bss	00000800 gdt_table
00000000 l    df *ABS*	00000000 irq.c
00010abc l     F .text	0000001d inb
00010ad9 l     F .text	0000001f outb
00010af8 l     F .text	00000007 cli
00010aff l     F .text	00000007 sti
00010b06 l     F .text	00000028 lidt
00010b2e l     F .text	00000007 hlt
00010b35 l     F .text	00000010 read_eflags
00010b45 l     F .text	0000000b write_eflags
00013b40 l     O .bss	00000400 idt_table
00010b50 l     F .text	000000d9 dump_core_regs
00010c29 l     F .text	0000003e do_default_handler
00010e97 l     F .text	00000093 init_pic
00000000 l    df *ABS*	00000000 time.c
00011289 l     F .text	0000001f outb
00013f40 l     O .bss	00000004 sys_tick
000112d0 l     F .text	00000060 init_pit
00000000 l    df *ABS*	00000000 init.c
00013f60 l     O .bss	00001000 init_task_stack
00014f60 l     O .bss	000000b4 init_task
00015014 l     O .bss	00000010 sem
00000000 l    df *ABS*	00000000 sem.c
00011463 l     F .text	0000000b list_count
00000000 l    df *ABS*	00000000 klib.c
000115a7 l     F .text	00000007 hlt
00012184 l     O .data	00000004 num2ch.0
00000000 l    df *ABS*	00000000 list.c
00011a85 l     F .text	00000013 list_is_empty
00000000 l    df *ABS*	00000000 log.c
00011c7d l     F .text	0000001d inb
00011c9a l     F .text	0000001f outb
00011720 g     F .text	0000004f kernel_memcpy
0001063f g     F .text	0000000a task_current
0001122a g     F .text	0000000b irq_enable_global
00011b1c g     F .text	00000064 list_insert_last
00010d9b g     F .text	0000001c do_handler_segment_not_present
000105e0 g     F .text	00000034 task_set_ready
0001176f g     F .text	00000041 kernel_memset
0001026a g       .text	00000000 exception_handler_virtual_exception
00010ab1 g     F .text	0000000b cpu_init
000113a3 g     F .text	000000c0 init_main
0001020f g       .text	00000000 exception_handler_alignment_check
000115ae g     F .text	00000047 kernel_strcpy
0001110d g     F .text	0000008b irq_enable
000100a7 g       .text	00000000 exception_handler_breakpoint
00010cf3 g     F .text	0000001c do_handler_overflow
00010e27 g     F .text	0000001c do_handler_alignment_check
000101b6 g       .text	00000000 exception_handler_general_protection
00010dd3 g     F .text	0000001c do_handler_general_protection
0001157e g     F .text	00000029 sem_count
00010c83 g     F .text	0000001c do_handler_divider
00010d63 g     F .text	0000001c do_handler_double_fault
0001136a g     F .text	00000039 init_task_entry
00010def g     F .text	0000001c do_handler_page_fault
00010142 g       .text	00000000 exception_handler_double_fault
00011235 g     F .text	0000002b pic_send_eoi
000105d6 g     F .text	0000000a task_first_task
00011491 g     F .text	0000006b sem_wait
00011cb9 g     F .text	00000072 init_log
00010c67 g     F .text	0000001c do_handler_unknow
00010199 g       .text	00000000 exception_handler_stack_segment_fault
00010e7b g     F .text	0000001c do_handler_virtual_exception
000100c6 g       .text	00000000 exception_handler_overflow
000102a8 g       .text	00000000 simple_switch
00010289 g       .text	00000000 exception_handler_time
00015030 g     O .bss	00002000 stack
00010865 g     F .text	00000057 sys_sleep
000100e5 g       .text	00000000 exception_handler_bound_range
000114fc g     F .text	00000082 sem_notify
00010d2b g     F .text	0000001c do_handler_invalid_opcode
0001015f g       .text	00000000 exception_handler_invalid_tss
00010e0b g     F .text	0000001c do_handler_fpu_error
00010599 g     F .text	0000003d task_first_init
00010e43 g     F .text	0000001c do_handler_machine_check
00010c9f g     F .text	0000001c do_handler_Debug
00011abd g     F .text	0000005f list_insert_first
00010845 g     F .text	00000020 task_set_wakeup
00010cbb g     F .text	0000001c do_handler_NMI
0001004a g       .text	00000000 exception_handler_divider
000115f5 g     F .text	00000070 kernel_strncpy
0001121f g     F .text	0000000b irq_disable_global
00010649 g     F .text	00000061 sys_sched_yield
00011348 g     F .text	00000022 kernel_init
0001146e g     F .text	00000023 sem_init
00010000 g       .text	00000000 _start
00011909 g     F .text	00000146 kernel_vsprintf
00010123 g       .text	00000000 exception_handler_device_unavailable
00010104 g       .text	00000000 exception_handler_invalid_opcode
0001022c g       .text	00000000 exception_handler_machine_check
00010d7f g     F .text	0000001c do_handler_invalid_tss
0001080b g     F .text	0000003a task_set_sleep
000110d8 g     F .text	00000035 irq_install
00011d2b g     F .text	000000d4 log_prinf
00010981 g     F .text	0000006d init_gdt
00011260 g     F .text	00000018 irq_enter_protection
00011198 g     F .text	00000087 irq_disable
0001024b g       .text	00000000 exception_handler_smd_exception
00010d47 g     F .text	0000001c do_handler_device_unavailable
000106ed g     F .text	00000045 task_dispatch
00010a9e g     F .text	00000013 switch_to_tss
000106aa g     F .text	00000043 task_next_run
000117b0 g     F .text	0000005e kernel_memcmp
00011a98 g     F .text	00000025 list_init
0001002b g       .text	00000000 exception_handler_unknow
00010e5f g     F .text	0000001c do_handler_smd_exception
000101d3 g       .text	00000000 exception_handler_page_fault
00010614 g     F .text	0000002b task_set_block
000101f0 g       .text	00000000 exception_handler_fpu_error
0001050e g     F .text	0000001e task_switch_from_to
00010a35 g     F .text	00000069 gdt_alloc_des
00010f2a g     F .text	000001ae irq_init
00011278 g     F .text	00000011 irq_leave_protection
000116e5 g     F .text	0000003b kernel_strlen
000108fe g     F .text	00000083 segment_desc_set
00010d0f g     F .text	0000001c do_handler_bound_range
00011b80 g     F .text	00000078 list_remove_first
00011665 g     F .text	00000080 kernel_strncmp
0001017c g       .text	00000000 exception_handler_segment_not_present
00011330 g     F .text	00000018 init_time
00010088 g       .text	00000000 exception_handler_NMI
00010536 g     F .text	00000063 task_manager_init
00010069 g       .text	00000000 exception_handler_Debug
00010732 g     F .text	000000d9 task_time_tick
00011a4f g     F .text	00000036 pannic
00010db7 g     F .text	0000001c do_handler_stack_segment_fault
00010cd7 g     F .text	0000001c do_handler_breakpoint
0001041d g     F .text	000000f1 task_init
0001180e g     F .text	00000024 kernel_sprintf
00011832 g     F .text	000000d7 kernel_itoa
00011bf8 g     F .text	00000085 list_remove
000109ee g     F .text	00000047 gate_desc_set
000112a8 g     F .text	00000028 do_handler_time



Disassembly of section .text:

00010000 <_start>:
    .text
    .extern kernel_init
    .global _start
    .extern init_main
_start:
    push %ebp
   10000:	55                   	push   %ebp
    mov  %esp,%ebp
   10001:	89 e5                	mov    %esp,%ebp
    mov  0x8(%ebp),%eax
   10003:	8b 45 08             	mov    0x8(%ebp),%eax

    push %eax
   10006:	50                   	push   %eax
    call kernel_init
   10007:	e8 3c 13 00 00       	call   11348 <kernel_init>

    jmp $KERNEL_SELECTOR_CS, $gdt_reload
   1000c:	ea 13 00 01 00 08 00 	ljmp   $0x8,$0x10013

00010013 <gdt_reload>:
gdt_reload:
    mov $KERNEL_SELECTOR_DS, %ax
   10013:	66 b8 10 00          	mov    $0x10,%ax
	mov %ax, %ds
   10017:	8e d8                	mov    %eax,%ds
	mov %ax, %ss
   10019:	8e d0                	mov    %eax,%ss
	mov %ax, %es
   1001b:	8e c0                	mov    %eax,%es
	mov %ax, %fs
   1001d:	8e e0                	mov    %eax,%fs
	mov %ax, %gs
   1001f:	8e e8                	mov    %eax,%gs

    mov $(stack+KERNEL_STACK_SIZE), %esp
   10021:	bc 30 70 01 00       	mov    $0x17030,%esp
    jmp init_main
   10026:	e9 78 13 00 00       	jmp    113a3 <init_main>

0001002b <exception_handler_unknow>:

    add $(2*4), %esp
    iret
.endm

exception_handler  unknow,-1,0
   1002b:	6a 00                	push   $0x0
   1002d:	6a ff                	push   $0xffffffff
   1002f:	60                   	pusha
   10030:	1e                   	push   %ds
   10031:	06                   	push   %es
   10032:	0f a0                	push   %fs
   10034:	0f a8                	push   %gs
   10036:	54                   	push   %esp
   10037:	e8 2b 0c 00 00       	call   10c67 <do_handler_unknow>
   1003c:	83 c4 04             	add    $0x4,%esp
   1003f:	0f a9                	pop    %gs
   10041:	0f a1                	pop    %fs
   10043:	07                   	pop    %es
   10044:	1f                   	pop    %ds
   10045:	61                   	popa
   10046:	83 c4 08             	add    $0x8,%esp
   10049:	cf                   	iret

0001004a <exception_handler_divider>:
exception_handler  divider,0,0
   1004a:	6a 00                	push   $0x0
   1004c:	6a 00                	push   $0x0
   1004e:	60                   	pusha
   1004f:	1e                   	push   %ds
   10050:	06                   	push   %es
   10051:	0f a0                	push   %fs
   10053:	0f a8                	push   %gs
   10055:	54                   	push   %esp
   10056:	e8 28 0c 00 00       	call   10c83 <do_handler_divider>
   1005b:	83 c4 04             	add    $0x4,%esp
   1005e:	0f a9                	pop    %gs
   10060:	0f a1                	pop    %fs
   10062:	07                   	pop    %es
   10063:	1f                   	pop    %ds
   10064:	61                   	popa
   10065:	83 c4 08             	add    $0x8,%esp
   10068:	cf                   	iret

00010069 <exception_handler_Debug>:
exception_handler Debug, 1, 0
   10069:	6a 00                	push   $0x0
   1006b:	6a 01                	push   $0x1
   1006d:	60                   	pusha
   1006e:	1e                   	push   %ds
   1006f:	06                   	push   %es
   10070:	0f a0                	push   %fs
   10072:	0f a8                	push   %gs
   10074:	54                   	push   %esp
   10075:	e8 25 0c 00 00       	call   10c9f <do_handler_Debug>
   1007a:	83 c4 04             	add    $0x4,%esp
   1007d:	0f a9                	pop    %gs
   1007f:	0f a1                	pop    %fs
   10081:	07                   	pop    %es
   10082:	1f                   	pop    %ds
   10083:	61                   	popa
   10084:	83 c4 08             	add    $0x8,%esp
   10087:	cf                   	iret

00010088 <exception_handler_NMI>:
exception_handler NMI, 2, 0
   10088:	6a 00                	push   $0x0
   1008a:	6a 02                	push   $0x2
   1008c:	60                   	pusha
   1008d:	1e                   	push   %ds
   1008e:	06                   	push   %es
   1008f:	0f a0                	push   %fs
   10091:	0f a8                	push   %gs
   10093:	54                   	push   %esp
   10094:	e8 22 0c 00 00       	call   10cbb <do_handler_NMI>
   10099:	83 c4 04             	add    $0x4,%esp
   1009c:	0f a9                	pop    %gs
   1009e:	0f a1                	pop    %fs
   100a0:	07                   	pop    %es
   100a1:	1f                   	pop    %ds
   100a2:	61                   	popa
   100a3:	83 c4 08             	add    $0x8,%esp
   100a6:	cf                   	iret

000100a7 <exception_handler_breakpoint>:
exception_handler breakpoint, 3, 0
   100a7:	6a 00                	push   $0x0
   100a9:	6a 03                	push   $0x3
   100ab:	60                   	pusha
   100ac:	1e                   	push   %ds
   100ad:	06                   	push   %es
   100ae:	0f a0                	push   %fs
   100b0:	0f a8                	push   %gs
   100b2:	54                   	push   %esp
   100b3:	e8 1f 0c 00 00       	call   10cd7 <do_handler_breakpoint>
   100b8:	83 c4 04             	add    $0x4,%esp
   100bb:	0f a9                	pop    %gs
   100bd:	0f a1                	pop    %fs
   100bf:	07                   	pop    %es
   100c0:	1f                   	pop    %ds
   100c1:	61                   	popa
   100c2:	83 c4 08             	add    $0x8,%esp
   100c5:	cf                   	iret

000100c6 <exception_handler_overflow>:
exception_handler overflow, 4, 0
   100c6:	6a 00                	push   $0x0
   100c8:	6a 04                	push   $0x4
   100ca:	60                   	pusha
   100cb:	1e                   	push   %ds
   100cc:	06                   	push   %es
   100cd:	0f a0                	push   %fs
   100cf:	0f a8                	push   %gs
   100d1:	54                   	push   %esp
   100d2:	e8 1c 0c 00 00       	call   10cf3 <do_handler_overflow>
   100d7:	83 c4 04             	add    $0x4,%esp
   100da:	0f a9                	pop    %gs
   100dc:	0f a1                	pop    %fs
   100de:	07                   	pop    %es
   100df:	1f                   	pop    %ds
   100e0:	61                   	popa
   100e1:	83 c4 08             	add    $0x8,%esp
   100e4:	cf                   	iret

000100e5 <exception_handler_bound_range>:
exception_handler bound_range, 5, 0
   100e5:	6a 00                	push   $0x0
   100e7:	6a 05                	push   $0x5
   100e9:	60                   	pusha
   100ea:	1e                   	push   %ds
   100eb:	06                   	push   %es
   100ec:	0f a0                	push   %fs
   100ee:	0f a8                	push   %gs
   100f0:	54                   	push   %esp
   100f1:	e8 19 0c 00 00       	call   10d0f <do_handler_bound_range>
   100f6:	83 c4 04             	add    $0x4,%esp
   100f9:	0f a9                	pop    %gs
   100fb:	0f a1                	pop    %fs
   100fd:	07                   	pop    %es
   100fe:	1f                   	pop    %ds
   100ff:	61                   	popa
   10100:	83 c4 08             	add    $0x8,%esp
   10103:	cf                   	iret

00010104 <exception_handler_invalid_opcode>:
exception_handler invalid_opcode, 6, 0
   10104:	6a 00                	push   $0x0
   10106:	6a 06                	push   $0x6
   10108:	60                   	pusha
   10109:	1e                   	push   %ds
   1010a:	06                   	push   %es
   1010b:	0f a0                	push   %fs
   1010d:	0f a8                	push   %gs
   1010f:	54                   	push   %esp
   10110:	e8 16 0c 00 00       	call   10d2b <do_handler_invalid_opcode>
   10115:	83 c4 04             	add    $0x4,%esp
   10118:	0f a9                	pop    %gs
   1011a:	0f a1                	pop    %fs
   1011c:	07                   	pop    %es
   1011d:	1f                   	pop    %ds
   1011e:	61                   	popa
   1011f:	83 c4 08             	add    $0x8,%esp
   10122:	cf                   	iret

00010123 <exception_handler_device_unavailable>:
exception_handler device_unavailable, 7, 0
   10123:	6a 00                	push   $0x0
   10125:	6a 07                	push   $0x7
   10127:	60                   	pusha
   10128:	1e                   	push   %ds
   10129:	06                   	push   %es
   1012a:	0f a0                	push   %fs
   1012c:	0f a8                	push   %gs
   1012e:	54                   	push   %esp
   1012f:	e8 13 0c 00 00       	call   10d47 <do_handler_device_unavailable>
   10134:	83 c4 04             	add    $0x4,%esp
   10137:	0f a9                	pop    %gs
   10139:	0f a1                	pop    %fs
   1013b:	07                   	pop    %es
   1013c:	1f                   	pop    %ds
   1013d:	61                   	popa
   1013e:	83 c4 08             	add    $0x8,%esp
   10141:	cf                   	iret

00010142 <exception_handler_double_fault>:
exception_handler double_fault, 8, 1
   10142:	6a 08                	push   $0x8
   10144:	60                   	pusha
   10145:	1e                   	push   %ds
   10146:	06                   	push   %es
   10147:	0f a0                	push   %fs
   10149:	0f a8                	push   %gs
   1014b:	54                   	push   %esp
   1014c:	e8 12 0c 00 00       	call   10d63 <do_handler_double_fault>
   10151:	83 c4 04             	add    $0x4,%esp
   10154:	0f a9                	pop    %gs
   10156:	0f a1                	pop    %fs
   10158:	07                   	pop    %es
   10159:	1f                   	pop    %ds
   1015a:	61                   	popa
   1015b:	83 c4 08             	add    $0x8,%esp
   1015e:	cf                   	iret

0001015f <exception_handler_invalid_tss>:
exception_handler invalid_tss, 10, 1
   1015f:	6a 0a                	push   $0xa
   10161:	60                   	pusha
   10162:	1e                   	push   %ds
   10163:	06                   	push   %es
   10164:	0f a0                	push   %fs
   10166:	0f a8                	push   %gs
   10168:	54                   	push   %esp
   10169:	e8 11 0c 00 00       	call   10d7f <do_handler_invalid_tss>
   1016e:	83 c4 04             	add    $0x4,%esp
   10171:	0f a9                	pop    %gs
   10173:	0f a1                	pop    %fs
   10175:	07                   	pop    %es
   10176:	1f                   	pop    %ds
   10177:	61                   	popa
   10178:	83 c4 08             	add    $0x8,%esp
   1017b:	cf                   	iret

0001017c <exception_handler_segment_not_present>:
exception_handler segment_not_present, 11, 1
   1017c:	6a 0b                	push   $0xb
   1017e:	60                   	pusha
   1017f:	1e                   	push   %ds
   10180:	06                   	push   %es
   10181:	0f a0                	push   %fs
   10183:	0f a8                	push   %gs
   10185:	54                   	push   %esp
   10186:	e8 10 0c 00 00       	call   10d9b <do_handler_segment_not_present>
   1018b:	83 c4 04             	add    $0x4,%esp
   1018e:	0f a9                	pop    %gs
   10190:	0f a1                	pop    %fs
   10192:	07                   	pop    %es
   10193:	1f                   	pop    %ds
   10194:	61                   	popa
   10195:	83 c4 08             	add    $0x8,%esp
   10198:	cf                   	iret

00010199 <exception_handler_stack_segment_fault>:
exception_handler stack_segment_fault, 12, 1
   10199:	6a 0c                	push   $0xc
   1019b:	60                   	pusha
   1019c:	1e                   	push   %ds
   1019d:	06                   	push   %es
   1019e:	0f a0                	push   %fs
   101a0:	0f a8                	push   %gs
   101a2:	54                   	push   %esp
   101a3:	e8 0f 0c 00 00       	call   10db7 <do_handler_stack_segment_fault>
   101a8:	83 c4 04             	add    $0x4,%esp
   101ab:	0f a9                	pop    %gs
   101ad:	0f a1                	pop    %fs
   101af:	07                   	pop    %es
   101b0:	1f                   	pop    %ds
   101b1:	61                   	popa
   101b2:	83 c4 08             	add    $0x8,%esp
   101b5:	cf                   	iret

000101b6 <exception_handler_general_protection>:
exception_handler general_protection, 13, 1
   101b6:	6a 0d                	push   $0xd
   101b8:	60                   	pusha
   101b9:	1e                   	push   %ds
   101ba:	06                   	push   %es
   101bb:	0f a0                	push   %fs
   101bd:	0f a8                	push   %gs
   101bf:	54                   	push   %esp
   101c0:	e8 0e 0c 00 00       	call   10dd3 <do_handler_general_protection>
   101c5:	83 c4 04             	add    $0x4,%esp
   101c8:	0f a9                	pop    %gs
   101ca:	0f a1                	pop    %fs
   101cc:	07                   	pop    %es
   101cd:	1f                   	pop    %ds
   101ce:	61                   	popa
   101cf:	83 c4 08             	add    $0x8,%esp
   101d2:	cf                   	iret

000101d3 <exception_handler_page_fault>:
exception_handler page_fault, 14, 1
   101d3:	6a 0e                	push   $0xe
   101d5:	60                   	pusha
   101d6:	1e                   	push   %ds
   101d7:	06                   	push   %es
   101d8:	0f a0                	push   %fs
   101da:	0f a8                	push   %gs
   101dc:	54                   	push   %esp
   101dd:	e8 0d 0c 00 00       	call   10def <do_handler_page_fault>
   101e2:	83 c4 04             	add    $0x4,%esp
   101e5:	0f a9                	pop    %gs
   101e7:	0f a1                	pop    %fs
   101e9:	07                   	pop    %es
   101ea:	1f                   	pop    %ds
   101eb:	61                   	popa
   101ec:	83 c4 08             	add    $0x8,%esp
   101ef:	cf                   	iret

000101f0 <exception_handler_fpu_error>:
exception_handler fpu_error, 16, 0
   101f0:	6a 00                	push   $0x0
   101f2:	6a 10                	push   $0x10
   101f4:	60                   	pusha
   101f5:	1e                   	push   %ds
   101f6:	06                   	push   %es
   101f7:	0f a0                	push   %fs
   101f9:	0f a8                	push   %gs
   101fb:	54                   	push   %esp
   101fc:	e8 0a 0c 00 00       	call   10e0b <do_handler_fpu_error>
   10201:	83 c4 04             	add    $0x4,%esp
   10204:	0f a9                	pop    %gs
   10206:	0f a1                	pop    %fs
   10208:	07                   	pop    %es
   10209:	1f                   	pop    %ds
   1020a:	61                   	popa
   1020b:	83 c4 08             	add    $0x8,%esp
   1020e:	cf                   	iret

0001020f <exception_handler_alignment_check>:
exception_handler alignment_check, 17, 1
   1020f:	6a 11                	push   $0x11
   10211:	60                   	pusha
   10212:	1e                   	push   %ds
   10213:	06                   	push   %es
   10214:	0f a0                	push   %fs
   10216:	0f a8                	push   %gs
   10218:	54                   	push   %esp
   10219:	e8 09 0c 00 00       	call   10e27 <do_handler_alignment_check>
   1021e:	83 c4 04             	add    $0x4,%esp
   10221:	0f a9                	pop    %gs
   10223:	0f a1                	pop    %fs
   10225:	07                   	pop    %es
   10226:	1f                   	pop    %ds
   10227:	61                   	popa
   10228:	83 c4 08             	add    $0x8,%esp
   1022b:	cf                   	iret

0001022c <exception_handler_machine_check>:
exception_handler machine_check, 18, 0
   1022c:	6a 00                	push   $0x0
   1022e:	6a 12                	push   $0x12
   10230:	60                   	pusha
   10231:	1e                   	push   %ds
   10232:	06                   	push   %es
   10233:	0f a0                	push   %fs
   10235:	0f a8                	push   %gs
   10237:	54                   	push   %esp
   10238:	e8 06 0c 00 00       	call   10e43 <do_handler_machine_check>
   1023d:	83 c4 04             	add    $0x4,%esp
   10240:	0f a9                	pop    %gs
   10242:	0f a1                	pop    %fs
   10244:	07                   	pop    %es
   10245:	1f                   	pop    %ds
   10246:	61                   	popa
   10247:	83 c4 08             	add    $0x8,%esp
   1024a:	cf                   	iret

0001024b <exception_handler_smd_exception>:
exception_handler smd_exception, 19, 0
   1024b:	6a 00                	push   $0x0
   1024d:	6a 13                	push   $0x13
   1024f:	60                   	pusha
   10250:	1e                   	push   %ds
   10251:	06                   	push   %es
   10252:	0f a0                	push   %fs
   10254:	0f a8                	push   %gs
   10256:	54                   	push   %esp
   10257:	e8 03 0c 00 00       	call   10e5f <do_handler_smd_exception>
   1025c:	83 c4 04             	add    $0x4,%esp
   1025f:	0f a9                	pop    %gs
   10261:	0f a1                	pop    %fs
   10263:	07                   	pop    %es
   10264:	1f                   	pop    %ds
   10265:	61                   	popa
   10266:	83 c4 08             	add    $0x8,%esp
   10269:	cf                   	iret

0001026a <exception_handler_virtual_exception>:
exception_handler virtual_exception, 20, 0
   1026a:	6a 00                	push   $0x0
   1026c:	6a 14                	push   $0x14
   1026e:	60                   	pusha
   1026f:	1e                   	push   %ds
   10270:	06                   	push   %es
   10271:	0f a0                	push   %fs
   10273:	0f a8                	push   %gs
   10275:	54                   	push   %esp
   10276:	e8 00 0c 00 00       	call   10e7b <do_handler_virtual_exception>
   1027b:	83 c4 04             	add    $0x4,%esp
   1027e:	0f a9                	pop    %gs
   10280:	0f a1                	pop    %fs
   10282:	07                   	pop    %es
   10283:	1f                   	pop    %ds
   10284:	61                   	popa
   10285:	83 c4 08             	add    $0x8,%esp
   10288:	cf                   	iret

00010289 <exception_handler_time>:

exception_handler time, 0x20, 0
   10289:	6a 00                	push   $0x0
   1028b:	6a 20                	push   $0x20
   1028d:	60                   	pusha
   1028e:	1e                   	push   %ds
   1028f:	06                   	push   %es
   10290:	0f a0                	push   %fs
   10292:	0f a8                	push   %gs
   10294:	54                   	push   %esp
   10295:	e8 0e 10 00 00       	call   112a8 <do_handler_time>
   1029a:	83 c4 04             	add    $0x4,%esp
   1029d:	0f a9                	pop    %gs
   1029f:	0f a1                	pop    %fs
   102a1:	07                   	pop    %es
   102a2:	1f                   	pop    %ds
   102a3:	61                   	popa
   102a4:	83 c4 08             	add    $0x8,%esp
   102a7:	cf                   	iret

000102a8 <simple_switch>:
    //simple_switch(&from,&to)
     .text
     .global simple_switch
simple_switch:
    //取出from
    mov 4(%esp), %eax
   102a8:	8b 44 24 04          	mov    0x4(%esp),%eax
    //取出to
    mov 8(%esp), %edx
   102ac:	8b 54 24 08          	mov    0x8(%esp),%edx
    push %ebp
   102b0:	55                   	push   %ebp
    push %ebx
   102b1:	53                   	push   %ebx
    push %esi
   102b2:	56                   	push   %esi
    push %edi
   102b3:	57                   	push   %edi
    mov %esp, (%eax)
   102b4:	89 20                	mov    %esp,(%eax)

    mov %edx, %esp
   102b6:	89 d4                	mov    %edx,%esp
    pop %edi
   102b8:	5f                   	pop    %edi
    pop %esi
   102b9:	5e                   	pop    %esi
    pop %ebx
   102ba:	5b                   	pop    %ebx
    pop %ebp
   102bb:	5d                   	pop    %ebp

    ret
   102bc:	c3                   	ret

000102bd <list_node_init>:
        // gdt表已经满了无法添加tss描述副到gdt中
        log_prinf("alloc tss failed");
        return -1;
    }

    segment_desc_set(tss_sel, (uint32_t)&task->tss, sizeof(task_t),
   102bd:	55                   	push   %ebp
   102be:	89 e5                	mov    %esp,%ebp
                     SEG_PRESENT | SEG_DPL0 | SEG_TYPE_TSS);
   102c0:	8b 45 08             	mov    0x8(%ebp),%eax
   102c3:	c7 40 04 00 00 00 00 	movl   $0x0,0x4(%eax)
   102ca:	8b 45 08             	mov    0x8(%ebp),%eax
   102cd:	8b 50 04             	mov    0x4(%eax),%edx
   102d0:	8b 45 08             	mov    0x8(%ebp),%eax
   102d3:	89 10                	mov    %edx,(%eax)

   102d5:	90                   	nop
   102d6:	5d                   	pop    %ebp
   102d7:	c3                   	ret

000102d8 <list_node_next>:
int task_init(task_t *task, const char *name, uint32_t entry, uint32_t esp)
{
    ASSERT(task != (task_t *)0);
    tss_init(task, entry, esp);
    // 复制进程名到task.name中
    kernel_strncpy(task->name, name, TASK_NAME_SIZE);
   102d8:	55                   	push   %ebp
   102d9:	89 e5                	mov    %esp,%ebp
    task->state = TASK_CREATED; // 将开始创建的进程状态设置成task_created
   102db:	8b 45 08             	mov    0x8(%ebp),%eax
   102de:	8b 40 04             	mov    0x4(%eax),%eax
    task->sleep_ticks = 0;      // 初始化任务延迟时间
   102e1:	5d                   	pop    %ebp
   102e2:	c3                   	ret

000102e3 <list_count>:
{
    for (;;)
    {
        hlt(); // 执行低功耗指令
    }
}
   102e3:	55                   	push   %ebp
   102e4:	89 e5                	mov    %esp,%ebp

   102e6:	8b 45 08             	mov    0x8(%ebp),%eax
   102e9:	8b 40 08             	mov    0x8(%eax),%eax
void task_manager_init(void)
   102ec:	5d                   	pop    %ebp
   102ed:	c3                   	ret

000102ee <list_first>:
    list_init(&task_manager.task_list);
    list_init(&task_manager.sleep_list);
    task_manager.currt_task = (task_t *)0;

    task_init(&task_manager.idle_task, "idle_task", (uint32_t)idle_task_entry, (uint32_t)(idle_task_stack + IDLE_TASK_SIZE));
}
   102ee:	55                   	push   %ebp
   102ef:	89 e5                	mov    %esp,%ebp

   102f1:	8b 45 08             	mov    0x8(%ebp),%eax
   102f4:	8b 00                	mov    (%eax),%eax
void task_first_init(void)
   102f6:	5d                   	pop    %ebp
   102f7:	c3                   	ret

000102f8 <hlt>:
    uint32_t addr[] = {offset, selector};
    __asm__ __volatile__("ljmpl *(%[a])" ::[a] "r"(addr));
}

static inline void hlt(void)
{
   102f8:	55                   	push   %ebp
   102f9:	89 e5                	mov    %esp,%ebp
    __asm__ __volatile__("hlt");
   102fb:	f4                   	hlt
}
   102fc:	90                   	nop
   102fd:	5d                   	pop    %ebp
   102fe:	c3                   	ret

000102ff <write_tr>:

static inline void write_tr(uint16_t tss_sel)
{
   102ff:	55                   	push   %ebp
   10300:	89 e5                	mov    %esp,%ebp
   10302:	83 ec 04             	sub    $0x4,%esp
   10305:	8b 45 08             	mov    0x8(%ebp),%eax
   10308:	66 89 45 fc          	mov    %ax,-0x4(%ebp)
    __asm__ __volatile__("ltr %%ax" ::"a"(tss_sel));
   1030c:	0f b7 45 fc          	movzwl -0x4(%ebp),%eax
   10310:	0f 00 d8             	ltr    %ax
}
   10313:	90                   	nop
   10314:	c9                   	leave
   10315:	c3                   	ret

00010316 <tss_init>:
{
   10316:	55                   	push   %ebp
   10317:	89 e5                	mov    %esp,%ebp
   10319:	83 ec 18             	sub    $0x18,%esp
    int tss_sel = gdt_alloc_des();
   1031c:	e8 14 07 00 00       	call   10a35 <gdt_alloc_des>
   10321:	89 45 f4             	mov    %eax,-0xc(%ebp)
    if (tss_sel < 0)
   10324:	83 7d f4 00          	cmpl   $0x0,-0xc(%ebp)
   10328:	79 1a                	jns    10344 <tss_init+0x2e>
        log_prinf("alloc tss failed");
   1032a:	83 ec 0c             	sub    $0xc,%esp
   1032d:	68 00 1e 01 00       	push   $0x11e00
   10332:	e8 f4 19 00 00       	call   11d2b <log_prinf>
   10337:	83 c4 10             	add    $0x10,%esp
        return -1;
   1033a:	b8 ff ff ff ff       	mov    $0xffffffff,%eax
   1033f:	e9 d7 00 00 00       	jmp    1041b <tss_init+0x105>
    segment_desc_set(tss_sel, (uint32_t)&task->tss, sizeof(task_t),
   10344:	8b 45 08             	mov    0x8(%ebp),%eax
   10347:	83 c0 48             	add    $0x48,%eax
   1034a:	68 89 00 00 00       	push   $0x89
   1034f:	68 b4 00 00 00       	push   $0xb4
   10354:	50                   	push   %eax
   10355:	ff 75 f4             	push   -0xc(%ebp)
   10358:	e8 a1 05 00 00       	call   108fe <segment_desc_set>
   1035d:	83 c4 10             	add    $0x10,%esp
    kernel_memset(&task->tss, 0, sizeof(tss_t));
   10360:	8b 45 08             	mov    0x8(%ebp),%eax
   10363:	83 c0 48             	add    $0x48,%eax
   10366:	83 ec 04             	sub    $0x4,%esp
   10369:	6a 68                	push   $0x68
   1036b:	6a 00                	push   $0x0
   1036d:	50                   	push   %eax
   1036e:	e8 fc 13 00 00       	call   1176f <kernel_memset>
   10373:	83 c4 10             	add    $0x10,%esp
    task->tss.eip = entry;
   10376:	8b 45 08             	mov    0x8(%ebp),%eax
   10379:	8b 55 0c             	mov    0xc(%ebp),%edx
   1037c:	89 50 68             	mov    %edx,0x68(%eax)
    task->tss.esp = task->tss.esp0 = esp;
   1037f:	8b 45 08             	mov    0x8(%ebp),%eax
   10382:	8b 55 10             	mov    0x10(%ebp),%edx
   10385:	89 50 4c             	mov    %edx,0x4c(%eax)
   10388:	8b 45 08             	mov    0x8(%ebp),%eax
   1038b:	8b 50 4c             	mov    0x4c(%eax),%edx
   1038e:	8b 45 08             	mov    0x8(%ebp),%eax
   10391:	89 90 80 00 00 00    	mov    %edx,0x80(%eax)
    task->tss.ss = task->tss.ss0 = KERNEL_SELECTOR_DS;
   10397:	8b 45 08             	mov    0x8(%ebp),%eax
   1039a:	c7 40 50 10 00 00 00 	movl   $0x10,0x50(%eax)
   103a1:	8b 45 08             	mov    0x8(%ebp),%eax
   103a4:	8b 50 50             	mov    0x50(%eax),%edx
   103a7:	8b 45 08             	mov    0x8(%ebp),%eax
   103aa:	89 90 98 00 00 00    	mov    %edx,0x98(%eax)
    task->tss.es = task->tss.ds = task->tss.fs = task->tss.gs = KERNEL_SELECTOR_DS;
   103b0:	8b 45 08             	mov    0x8(%ebp),%eax
   103b3:	c7 80 a4 00 00 00 10 	movl   $0x10,0xa4(%eax)
   103ba:	00 00 00 
   103bd:	8b 45 08             	mov    0x8(%ebp),%eax
   103c0:	8b 90 a4 00 00 00    	mov    0xa4(%eax),%edx
   103c6:	8b 45 08             	mov    0x8(%ebp),%eax
   103c9:	89 90 a0 00 00 00    	mov    %edx,0xa0(%eax)
   103cf:	8b 45 08             	mov    0x8(%ebp),%eax
   103d2:	8b 90 a0 00 00 00    	mov    0xa0(%eax),%edx
   103d8:	8b 45 08             	mov    0x8(%ebp),%eax
   103db:	89 90 9c 00 00 00    	mov    %edx,0x9c(%eax)
   103e1:	8b 45 08             	mov    0x8(%ebp),%eax
   103e4:	8b 90 9c 00 00 00    	mov    0x9c(%eax),%edx
   103ea:	8b 45 08             	mov    0x8(%ebp),%eax
   103ed:	89 90 90 00 00 00    	mov    %edx,0x90(%eax)
    task->tss.cs = KERNEL_SELECTOR_CS;
   103f3:	8b 45 08             	mov    0x8(%ebp),%eax
   103f6:	c7 80 94 00 00 00 08 	movl   $0x8,0x94(%eax)
   103fd:	00 00 00 
    task->tss.eflags = EFLAGS_IF | EFLAGS_DEFALUT;
   10400:	8b 45 08             	mov    0x8(%ebp),%eax
   10403:	c7 40 6c 02 02 00 00 	movl   $0x202,0x6c(%eax)
    task->tss_sel = tss_sel; // 将tss选择子保存到tss_sel中
   1040a:	8b 45 08             	mov    0x8(%ebp),%eax
   1040d:	8b 55 f4             	mov    -0xc(%ebp),%edx
   10410:	89 90 b0 00 00 00    	mov    %edx,0xb0(%eax)
    return 0;
   10416:	b8 00 00 00 00       	mov    $0x0,%eax
}
   1041b:	c9                   	leave
   1041c:	c3                   	ret

0001041d <task_init>:
{
   1041d:	55                   	push   %ebp
   1041e:	89 e5                	mov    %esp,%ebp
   10420:	83 ec 18             	sub    $0x18,%esp
    ASSERT(task != (task_t *)0);
   10423:	83 7d 08 00          	cmpl   $0x0,0x8(%ebp)
   10427:	75 19                	jne    10442 <task_init+0x25>
   10429:	68 11 1e 01 00       	push   $0x11e11
   1042e:	68 8c 1e 01 00       	push   $0x11e8c
   10433:	6a 29                	push   $0x29
   10435:	68 28 1e 01 00       	push   $0x11e28
   1043a:	e8 10 16 00 00       	call   11a4f <pannic>
   1043f:	83 c4 10             	add    $0x10,%esp
    tss_init(task, entry, esp);
   10442:	83 ec 04             	sub    $0x4,%esp
   10445:	ff 75 14             	push   0x14(%ebp)
   10448:	ff 75 10             	push   0x10(%ebp)
   1044b:	ff 75 08             	push   0x8(%ebp)
   1044e:	e8 c3 fe ff ff       	call   10316 <tss_init>
   10453:	83 c4 10             	add    $0x10,%esp
    kernel_strncpy(task->name, name, TASK_NAME_SIZE);
   10456:	8b 45 08             	mov    0x8(%ebp),%eax
   10459:	83 c0 10             	add    $0x10,%eax
   1045c:	83 ec 04             	sub    $0x4,%esp
   1045f:	6a 20                	push   $0x20
   10461:	ff 75 0c             	push   0xc(%ebp)
   10464:	50                   	push   %eax
   10465:	e8 8b 11 00 00       	call   115f5 <kernel_strncpy>
   1046a:	83 c4 10             	add    $0x10,%esp
    task->state = TASK_CREATED; // 将开始创建的进程状态设置成task_created
   1046d:	8b 45 08             	mov    0x8(%ebp),%eax
   10470:	c7 00 00 00 00 00    	movl   $0x0,(%eax)
    task->sleep_ticks = 0;      // 初始化任务延迟时间
   10476:	8b 45 08             	mov    0x8(%ebp),%eax
   10479:	c7 40 04 00 00 00 00 	movl   $0x0,0x4(%eax)
    task->time_ticks = TASK_TIME_SLICE_DEFAULT;
   10480:	8b 45 08             	mov    0x8(%ebp),%eax
   10483:	c7 40 08 0a 00 00 00 	movl   $0xa,0x8(%eax)
    task->slice_ticks = task->time_ticks;
   1048a:	8b 45 08             	mov    0x8(%ebp),%eax
   1048d:	8b 50 08             	mov    0x8(%eax),%edx
   10490:	8b 45 08             	mov    0x8(%ebp),%eax
   10493:	89 50 0c             	mov    %edx,0xc(%eax)
    list_node_init(&task->all_node);
   10496:	8b 45 08             	mov    0x8(%ebp),%eax
   10499:	83 c0 40             	add    $0x40,%eax
   1049c:	83 ec 0c             	sub    $0xc,%esp
   1049f:	50                   	push   %eax
   104a0:	e8 18 fe ff ff       	call   102bd <list_node_init>
   104a5:	83 c4 10             	add    $0x10,%esp
    list_node_init(&task->run_node);
   104a8:	8b 45 08             	mov    0x8(%ebp),%eax
   104ab:	83 c0 30             	add    $0x30,%eax
   104ae:	83 ec 0c             	sub    $0xc,%esp
   104b1:	50                   	push   %eax
   104b2:	e8 06 fe ff ff       	call   102bd <list_node_init>
   104b7:	83 c4 10             	add    $0x10,%esp
    list_node_init(&task->wait_node);
   104ba:	8b 45 08             	mov    0x8(%ebp),%eax
   104bd:	83 c0 38             	add    $0x38,%eax
   104c0:	83 ec 0c             	sub    $0xc,%esp
   104c3:	50                   	push   %eax
   104c4:	e8 f4 fd ff ff       	call   102bd <list_node_init>
   104c9:	83 c4 10             	add    $0x10,%esp
    irq_state_t state = irq_enter_protection();
   104cc:	e8 8f 0d 00 00       	call   11260 <irq_enter_protection>
   104d1:	89 45 f4             	mov    %eax,-0xc(%ebp)
    task_set_ready(task);
   104d4:	83 ec 0c             	sub    $0xc,%esp
   104d7:	ff 75 08             	push   0x8(%ebp)
   104da:	e8 01 01 00 00       	call   105e0 <task_set_ready>
   104df:	83 c4 10             	add    $0x10,%esp
    list_insert_last(&task_manager.task_list, &task->all_node);
   104e2:	8b 45 08             	mov    0x8(%ebp),%eax
   104e5:	83 c0 40             	add    $0x40,%eax
   104e8:	83 ec 08             	sub    $0x8,%esp
   104eb:	50                   	push   %eax
   104ec:	68 b0 31 01 00       	push   $0x131b0
   104f1:	e8 26 16 00 00       	call   11b1c <list_insert_last>
   104f6:	83 c4 10             	add    $0x10,%esp
    irq_leave_protection(state);
   104f9:	83 ec 0c             	sub    $0xc,%esp
   104fc:	ff 75 f4             	push   -0xc(%ebp)
   104ff:	e8 74 0d 00 00       	call   11278 <irq_leave_protection>
   10504:	83 c4 10             	add    $0x10,%esp
    return 0;
   10507:	b8 00 00 00 00       	mov    $0x0,%eax
}
   1050c:	c9                   	leave
   1050d:	c3                   	ret

0001050e <task_switch_from_to>:
{
   1050e:	55                   	push   %ebp
   1050f:	89 e5                	mov    %esp,%ebp
   10511:	83 ec 08             	sub    $0x8,%esp
    switch_to_tss(to->tss_sel);
   10514:	8b 45 0c             	mov    0xc(%ebp),%eax
   10517:	8b 80 b0 00 00 00    	mov    0xb0(%eax),%eax
   1051d:	83 ec 0c             	sub    $0xc,%esp
   10520:	50                   	push   %eax
   10521:	e8 78 05 00 00       	call   10a9e <switch_to_tss>
   10526:	83 c4 10             	add    $0x10,%esp
}
   10529:	90                   	nop
   1052a:	c9                   	leave
   1052b:	c3                   	ret

0001052c <idle_task_entry>:
{
   1052c:	55                   	push   %ebp
   1052d:	89 e5                	mov    %esp,%ebp
        hlt(); // 执行低功耗指令
   1052f:	e8 c4 fd ff ff       	call   102f8 <hlt>
   10534:	eb f9                	jmp    1052f <idle_task_entry+0x3>

00010536 <task_manager_init>:
{
   10536:	55                   	push   %ebp
   10537:	89 e5                	mov    %esp,%ebp
   10539:	83 ec 08             	sub    $0x8,%esp
    list_init(&task_manager.ready_list);
   1053c:	83 ec 0c             	sub    $0xc,%esp
   1053f:	68 a4 31 01 00       	push   $0x131a4
   10544:	e8 4f 15 00 00       	call   11a98 <list_init>
   10549:	83 c4 10             	add    $0x10,%esp
    list_init(&task_manager.task_list);
   1054c:	83 ec 0c             	sub    $0xc,%esp
   1054f:	68 b0 31 01 00       	push   $0x131b0
   10554:	e8 3f 15 00 00       	call   11a98 <list_init>
   10559:	83 c4 10             	add    $0x10,%esp
    list_init(&task_manager.sleep_list);
   1055c:	83 ec 0c             	sub    $0xc,%esp
   1055f:	68 bc 31 01 00       	push   $0x131bc
   10564:	e8 2f 15 00 00       	call   11a98 <list_init>
   10569:	83 c4 10             	add    $0x10,%esp
    task_manager.currt_task = (task_t *)0;
   1056c:	c7 05 a0 31 01 00 00 	movl   $0x0,0x131a0
   10573:	00 00 00 
    task_init(&task_manager.idle_task, "idle_task", (uint32_t)idle_task_entry, (uint32_t)(idle_task_stack + IDLE_TASK_SIZE));
   10576:	b8 a0 31 01 00       	mov    $0x131a0,%eax
   1057b:	89 c2                	mov    %eax,%edx
   1057d:	b8 2c 05 01 00       	mov    $0x1052c,%eax
   10582:	52                   	push   %edx
   10583:	50                   	push   %eax
   10584:	68 75 1e 01 00       	push   $0x11e75
   10589:	68 7c 32 01 00       	push   $0x1327c
   1058e:	e8 8a fe ff ff       	call   1041d <task_init>
   10593:	83 c4 10             	add    $0x10,%esp
}
   10596:	90                   	nop
   10597:	c9                   	leave
   10598:	c3                   	ret

00010599 <task_first_init>:
{
   10599:	55                   	push   %ebp
   1059a:	89 e5                	mov    %esp,%ebp
   1059c:	83 ec 08             	sub    $0x8,%esp
    task_init(&task_manager.first_task, "first task", 0, 0); //??为什么入口设置为0，堆栈也设置为0
   1059f:	6a 00                	push   $0x0
   105a1:	6a 00                	push   $0x0
   105a3:	68 7f 1e 01 00       	push   $0x11e7f
   105a8:	68 c8 31 01 00       	push   $0x131c8
   105ad:	e8 6b fe ff ff       	call   1041d <task_init>
   105b2:	83 c4 10             	add    $0x10,%esp
    write_tr(task_manager.first_task.tss_sel);
   105b5:	a1 78 32 01 00       	mov    0x13278,%eax
   105ba:	0f b7 c0             	movzwl %ax,%eax
   105bd:	83 ec 0c             	sub    $0xc,%esp
   105c0:	50                   	push   %eax
   105c1:	e8 39 fd ff ff       	call   102ff <write_tr>
   105c6:	83 c4 10             	add    $0x10,%esp
    task_manager.currt_task = &task_manager.first_task;
   105c9:	c7 05 a0 31 01 00 c8 	movl   $0x131c8,0x131a0
   105d0:	31 01 00 
}
   105d3:	90                   	nop
   105d4:	c9                   	leave
   105d5:	c3                   	ret

000105d6 <task_first_task>:

task_t *task_first_task(void)
{
   105d6:	55                   	push   %ebp
   105d7:	89 e5                	mov    %esp,%ebp
    return &task_manager.first_task;
   105d9:	b8 c8 31 01 00       	mov    $0x131c8,%eax
}
   105de:	5d                   	pop    %ebp
   105df:	c3                   	ret

000105e0 <task_set_ready>:

void task_set_ready(task_t *task)
{
   105e0:	55                   	push   %ebp
   105e1:	89 e5                	mov    %esp,%ebp
   105e3:	83 ec 08             	sub    $0x8,%esp
    // 如果是空闲进程就直接返回不插入到就绪队列不然空闲进程也会运行
    if (task == &task_manager.idle_task)
   105e6:	81 7d 08 7c 32 01 00 	cmpl   $0x1327c,0x8(%ebp)
   105ed:	74 22                	je     10611 <task_set_ready+0x31>
    {
        return;
    }
    list_insert_last(&task_manager.ready_list, &task->run_node);
   105ef:	8b 45 08             	mov    0x8(%ebp),%eax
   105f2:	83 c0 30             	add    $0x30,%eax
   105f5:	83 ec 08             	sub    $0x8,%esp
   105f8:	50                   	push   %eax
   105f9:	68 a4 31 01 00       	push   $0x131a4
   105fe:	e8 19 15 00 00       	call   11b1c <list_insert_last>
   10603:	83 c4 10             	add    $0x10,%esp
    task->state = TASK_READY;
   10606:	8b 45 08             	mov    0x8(%ebp),%eax
   10609:	c7 00 03 00 00 00    	movl   $0x3,(%eax)
   1060f:	eb 01                	jmp    10612 <task_set_ready+0x32>
        return;
   10611:	90                   	nop
}
   10612:	c9                   	leave
   10613:	c3                   	ret

00010614 <task_set_block>:
// 将任务从就绪队列中移除 此时任务的状态不确定 有可能是等待 有可能是睡眠因此不设置状态置
void task_set_block(task_t *task)
{
   10614:	55                   	push   %ebp
   10615:	89 e5                	mov    %esp,%ebp
   10617:	83 ec 08             	sub    $0x8,%esp
    if (task == &task_manager.idle_task)
   1061a:	81 7d 08 7c 32 01 00 	cmpl   $0x1327c,0x8(%ebp)
   10621:	74 19                	je     1063c <task_set_block+0x28>
    {
        return;
    }
    list_remove(&task_manager.ready_list, &task->run_node);
   10623:	8b 45 08             	mov    0x8(%ebp),%eax
   10626:	83 c0 30             	add    $0x30,%eax
   10629:	83 ec 08             	sub    $0x8,%esp
   1062c:	50                   	push   %eax
   1062d:	68 a4 31 01 00       	push   $0x131a4
   10632:	e8 c1 15 00 00       	call   11bf8 <list_remove>
   10637:	83 c4 10             	add    $0x10,%esp
   1063a:	eb 01                	jmp    1063d <task_set_block+0x29>
        return;
   1063c:	90                   	nop
}
   1063d:	c9                   	leave
   1063e:	c3                   	ret

0001063f <task_current>:

task_t *task_current(void)
{
   1063f:	55                   	push   %ebp
   10640:	89 e5                	mov    %esp,%ebp
    return task_manager.currt_task;
   10642:	a1 a0 31 01 00       	mov    0x131a0,%eax
}
   10647:	5d                   	pop    %ebp
   10648:	c3                   	ret

00010649 <sys_sched_yield>:

int sys_sched_yield()
{
   10649:	55                   	push   %ebp
   1064a:	89 e5                	mov    %esp,%ebp
   1064c:	83 ec 18             	sub    $0x18,%esp
    irq_state_t state = irq_enter_protection();
   1064f:	e8 0c 0c 00 00       	call   11260 <irq_enter_protection>
   10654:	89 45 f4             	mov    %eax,-0xc(%ebp)
    if (list_count(&task_manager.ready_list) > 1)
   10657:	83 ec 0c             	sub    $0xc,%esp
   1065a:	68 a4 31 01 00       	push   $0x131a4
   1065f:	e8 7f fc ff ff       	call   102e3 <list_count>
   10664:	83 c4 10             	add    $0x10,%esp
   10667:	83 f8 01             	cmp    $0x1,%eax
   1066a:	7e 29                	jle    10695 <sys_sched_yield+0x4c>
    {
        // 如果就绪队列中有其他的任务则将头部任务移到尾部
        task_t *current_task = task_current();
   1066c:	e8 ce ff ff ff       	call   1063f <task_current>
   10671:	89 45 f0             	mov    %eax,-0x10(%ebp)
        // 从队列头部取出当前任务
        task_set_block(current_task);
   10674:	83 ec 0c             	sub    $0xc,%esp
   10677:	ff 75 f0             	push   -0x10(%ebp)
   1067a:	e8 95 ff ff ff       	call   10614 <task_set_block>
   1067f:	83 c4 10             	add    $0x10,%esp
        // 将当前任务添加到队列尾部
        task_set_ready(current_task);
   10682:	83 ec 0c             	sub    $0xc,%esp
   10685:	ff 75 f0             	push   -0x10(%ebp)
   10688:	e8 53 ff ff ff       	call   105e0 <task_set_ready>
   1068d:	83 c4 10             	add    $0x10,%esp
        // 将cpu的使用权让给下一个任务
        task_dispatch();
   10690:	e8 58 00 00 00       	call   106ed <task_dispatch>
    }
    irq_leave_protection(state);
   10695:	83 ec 0c             	sub    $0xc,%esp
   10698:	ff 75 f4             	push   -0xc(%ebp)
   1069b:	e8 d8 0b 00 00       	call   11278 <irq_leave_protection>
   106a0:	83 c4 10             	add    $0x10,%esp
    // 没有其他的任务了就直接返回
    return 0;
   106a3:	b8 00 00 00 00       	mov    $0x0,%eax
}
   106a8:	c9                   	leave
   106a9:	c3                   	ret

000106aa <task_next_run>:

task_t *task_next_run(void)
{
   106aa:	55                   	push   %ebp
   106ab:	89 e5                	mov    %esp,%ebp
   106ad:	83 ec 10             	sub    $0x10,%esp
    if (list_count(&task_manager.ready_list) == 0)
   106b0:	68 a4 31 01 00       	push   $0x131a4
   106b5:	e8 29 fc ff ff       	call   102e3 <list_count>
   106ba:	83 c4 04             	add    $0x4,%esp
   106bd:	85 c0                	test   %eax,%eax
   106bf:	75 07                	jne    106c8 <task_next_run+0x1e>
    {
        // 将空闲进程放入接下来要执行的任务队列
        return &task_manager.idle_task;
   106c1:	b8 7c 32 01 00       	mov    $0x1327c,%eax
   106c6:	eb 23                	jmp    106eb <task_next_run+0x41>
    }
    list_node_t *task_node = list_first(&task_manager.ready_list);
   106c8:	68 a4 31 01 00       	push   $0x131a4
   106cd:	e8 1c fc ff ff       	call   102ee <list_first>
   106d2:	83 c4 04             	add    $0x4,%esp
   106d5:	89 45 fc             	mov    %eax,-0x4(%ebp)
    return list_node_parent(task_node, task_t, run_node);
   106d8:	83 7d fc 00          	cmpl   $0x0,-0x4(%ebp)
   106dc:	74 08                	je     106e6 <task_next_run+0x3c>
   106de:	8b 45 fc             	mov    -0x4(%ebp),%eax
   106e1:	83 e8 30             	sub    $0x30,%eax
   106e4:	eb 05                	jmp    106eb <task_next_run+0x41>
   106e6:	b8 00 00 00 00       	mov    $0x0,%eax
}
   106eb:	c9                   	leave
   106ec:	c3                   	ret

000106ed <task_dispatch>:

void task_dispatch(void)
{
   106ed:	55                   	push   %ebp
   106ee:	89 e5                	mov    %esp,%ebp
   106f0:	83 ec 18             	sub    $0x18,%esp
    // irq_state_t state = irq_enter_protection();
    task_t *to = task_next_run();
   106f3:	e8 b2 ff ff ff       	call   106aa <task_next_run>
   106f8:	89 45 f4             	mov    %eax,-0xc(%ebp)
    if (to != task_manager.currt_task)
   106fb:	a1 a0 31 01 00       	mov    0x131a0,%eax
   10700:	39 45 f4             	cmp    %eax,-0xc(%ebp)
   10703:	74 2a                	je     1072f <task_dispatch+0x42>
    {
        task_t *from = task_current();
   10705:	e8 35 ff ff ff       	call   1063f <task_current>
   1070a:	89 45 f0             	mov    %eax,-0x10(%ebp)
        task_manager.currt_task = to;
   1070d:	8b 45 f4             	mov    -0xc(%ebp),%eax
   10710:	a3 a0 31 01 00       	mov    %eax,0x131a0
        to->state = TASK_RUNNING;
   10715:	8b 45 f4             	mov    -0xc(%ebp),%eax
   10718:	c7 00 01 00 00 00    	movl   $0x1,(%eax)
        task_switch_from_to(from, to);
   1071e:	83 ec 08             	sub    $0x8,%esp
   10721:	ff 75 f4             	push   -0xc(%ebp)
   10724:	ff 75 f0             	push   -0x10(%ebp)
   10727:	e8 e2 fd ff ff       	call   1050e <task_switch_from_to>
   1072c:	83 c4 10             	add    $0x10,%esp
    }
    // irq_leave_protection(state);
}
   1072f:	90                   	nop
   10730:	c9                   	leave
   10731:	c3                   	ret

00010732 <task_time_tick>:
// 当时间片到了之后将运行中队列中当前的任务移到队列尾部
// 并取出运行队列中的下一个任务
void task_time_tick(void)
{
   10732:	55                   	push   %ebp
   10733:	89 e5                	mov    %esp,%ebp
   10735:	83 ec 18             	sub    $0x18,%esp
    task_t *current_task = task_current();
   10738:	e8 02 ff ff ff       	call   1063f <task_current>
   1073d:	89 45 f0             	mov    %eax,-0x10(%ebp)
    // irq_state_t state = irq_enter_protection();
    // 当前任务的运行时间片已经为0了
    if (--current_task->slice_ticks == 0)
   10740:	8b 45 f0             	mov    -0x10(%ebp),%eax
   10743:	8b 40 0c             	mov    0xc(%eax),%eax
   10746:	8d 50 ff             	lea    -0x1(%eax),%edx
   10749:	8b 45 f0             	mov    -0x10(%ebp),%eax
   1074c:	89 50 0c             	mov    %edx,0xc(%eax)
   1074f:	8b 45 f0             	mov    -0x10(%ebp),%eax
   10752:	8b 40 0c             	mov    0xc(%eax),%eax
   10755:	85 c0                	test   %eax,%eax
   10757:	75 2d                	jne    10786 <task_time_tick+0x54>
    {
        // 将这次的任务重新设置计数
        current_task->slice_ticks = current_task->time_ticks;
   10759:	8b 45 f0             	mov    -0x10(%ebp),%eax
   1075c:	8b 50 08             	mov    0x8(%eax),%edx
   1075f:	8b 45 f0             	mov    -0x10(%ebp),%eax
   10762:	89 50 0c             	mov    %edx,0xc(%eax)
        task_set_block(current_task);
   10765:	83 ec 0c             	sub    $0xc,%esp
   10768:	ff 75 f0             	push   -0x10(%ebp)
   1076b:	e8 a4 fe ff ff       	call   10614 <task_set_block>
   10770:	83 c4 10             	add    $0x10,%esp
        task_set_ready(current_task);
   10773:	83 ec 0c             	sub    $0xc,%esp
   10776:	ff 75 f0             	push   -0x10(%ebp)
   10779:	e8 62 fe ff ff       	call   105e0 <task_set_ready>
   1077e:	83 c4 10             	add    $0x10,%esp
        task_dispatch();
   10781:	e8 67 ff ff ff       	call   106ed <task_dispatch>
    }
    list_node_t *curr = list_first(&task_manager.sleep_list);
   10786:	83 ec 0c             	sub    $0xc,%esp
   10789:	68 bc 31 01 00       	push   $0x131bc
   1078e:	e8 5b fb ff ff       	call   102ee <list_first>
   10793:	83 c4 10             	add    $0x10,%esp
   10796:	89 45 f4             	mov    %eax,-0xc(%ebp)
    // 如果当前节点有效不为空
    while (curr)
   10799:	eb 62                	jmp    107fd <task_time_tick+0xcb>
    {
        list_node_t *next = list_node_next(curr);
   1079b:	83 ec 0c             	sub    $0xc,%esp
   1079e:	ff 75 f4             	push   -0xc(%ebp)
   107a1:	e8 32 fb ff ff       	call   102d8 <list_node_next>
   107a6:	83 c4 10             	add    $0x10,%esp
   107a9:	89 45 ec             	mov    %eax,-0x14(%ebp)
        task_t *task = list_node_parent(curr, task_t, run_node);
   107ac:	83 7d f4 00          	cmpl   $0x0,-0xc(%ebp)
   107b0:	74 08                	je     107ba <task_time_tick+0x88>
   107b2:	8b 45 f4             	mov    -0xc(%ebp),%eax
   107b5:	83 e8 30             	sub    $0x30,%eax
   107b8:	eb 05                	jmp    107bf <task_time_tick+0x8d>
   107ba:	b8 00 00 00 00       	mov    $0x0,%eax
   107bf:	89 45 e8             	mov    %eax,-0x18(%ebp)
        if (--task->sleep_ticks == 0)
   107c2:	8b 45 e8             	mov    -0x18(%ebp),%eax
   107c5:	8b 40 04             	mov    0x4(%eax),%eax
   107c8:	8d 50 ff             	lea    -0x1(%eax),%edx
   107cb:	8b 45 e8             	mov    -0x18(%ebp),%eax
   107ce:	89 50 04             	mov    %edx,0x4(%eax)
   107d1:	8b 45 e8             	mov    -0x18(%ebp),%eax
   107d4:	8b 40 04             	mov    0x4(%eax),%eax
   107d7:	85 c0                	test   %eax,%eax
   107d9:	75 1c                	jne    107f7 <task_time_tick+0xc5>
        {
            task_set_wakeup(task);
   107db:	83 ec 0c             	sub    $0xc,%esp
   107de:	ff 75 e8             	push   -0x18(%ebp)
   107e1:	e8 5f 00 00 00       	call   10845 <task_set_wakeup>
   107e6:	83 c4 10             	add    $0x10,%esp
            task_set_ready(task);
   107e9:	83 ec 0c             	sub    $0xc,%esp
   107ec:	ff 75 e8             	push   -0x18(%ebp)
   107ef:	e8 ec fd ff ff       	call   105e0 <task_set_ready>
   107f4:	83 c4 10             	add    $0x10,%esp
        }
        curr = next;
   107f7:	8b 45 ec             	mov    -0x14(%ebp),%eax
   107fa:	89 45 f4             	mov    %eax,-0xc(%ebp)
    while (curr)
   107fd:	83 7d f4 00          	cmpl   $0x0,-0xc(%ebp)
   10801:	75 98                	jne    1079b <task_time_tick+0x69>
    }
    task_dispatch();
   10803:	e8 e5 fe ff ff       	call   106ed <task_dispatch>
    // irq_leave_protection(state);
}
   10808:	90                   	nop
   10809:	c9                   	leave
   1080a:	c3                   	ret

0001080b <task_set_sleep>:

// 将任务插入睡眠队列
void task_set_sleep(task_t *task, uint32_t ticks)
{
   1080b:	55                   	push   %ebp
   1080c:	89 e5                	mov    %esp,%ebp
   1080e:	83 ec 08             	sub    $0x8,%esp
    if (ticks == 0)
   10811:	83 7d 0c 00          	cmpl   $0x0,0xc(%ebp)
   10815:	74 2b                	je     10842 <task_set_sleep+0x37>
    {
        return; // 如果当前任务不需要睡眠则直接返回
    }
    task->sleep_ticks = ticks;
   10817:	8b 55 0c             	mov    0xc(%ebp),%edx
   1081a:	8b 45 08             	mov    0x8(%ebp),%eax
   1081d:	89 50 04             	mov    %edx,0x4(%eax)
    task->state = TASK_SLEEP;
   10820:	8b 45 08             	mov    0x8(%ebp),%eax
   10823:	c7 00 02 00 00 00    	movl   $0x2,(%eax)
    list_insert_last(&task_manager.sleep_list, &task->run_node);
   10829:	8b 45 08             	mov    0x8(%ebp),%eax
   1082c:	83 c0 30             	add    $0x30,%eax
   1082f:	83 ec 08             	sub    $0x8,%esp
   10832:	50                   	push   %eax
   10833:	68 bc 31 01 00       	push   $0x131bc
   10838:	e8 df 12 00 00       	call   11b1c <list_insert_last>
   1083d:	83 c4 10             	add    $0x10,%esp
   10840:	eb 01                	jmp    10843 <task_set_sleep+0x38>
        return; // 如果当前任务不需要睡眠则直接返回
   10842:	90                   	nop
}
   10843:	c9                   	leave
   10844:	c3                   	ret

00010845 <task_set_wakeup>:

// 将任务从睡眠队列移除出去(到就绪对垒)
void task_set_wakeup(task_t *task)
{
   10845:	55                   	push   %ebp
   10846:	89 e5                	mov    %esp,%ebp
   10848:	83 ec 08             	sub    $0x8,%esp
    list_remove(&task_manager.sleep_list, &task->run_node);
   1084b:	8b 45 08             	mov    0x8(%ebp),%eax
   1084e:	83 c0 30             	add    $0x30,%eax
   10851:	83 ec 08             	sub    $0x8,%esp
   10854:	50                   	push   %eax
   10855:	68 bc 31 01 00       	push   $0x131bc
   1085a:	e8 99 13 00 00       	call   11bf8 <list_remove>
   1085f:	83 c4 10             	add    $0x10,%esp
}
   10862:	90                   	nop
   10863:	c9                   	leave
   10864:	c3                   	ret

00010865 <sys_sleep>:
void sys_sleep(uint32_t ms)
{
   10865:	55                   	push   %ebp
   10866:	89 e5                	mov    %esp,%ebp
   10868:	83 ec 18             	sub    $0x18,%esp
    irq_state_t state = irq_enter_protection();
   1086b:	e8 f0 09 00 00       	call   11260 <irq_enter_protection>
   10870:	89 45 f4             	mov    %eax,-0xc(%ebp)
    task_set_block(task_manager.currt_task); // 将当前进程从队列中移除
   10873:	a1 a0 31 01 00       	mov    0x131a0,%eax
   10878:	83 ec 0c             	sub    $0xc,%esp
   1087b:	50                   	push   %eax
   1087c:	e8 93 fd ff ff       	call   10614 <task_set_block>
   10881:	83 c4 10             	add    $0x10,%esp
    task_set_sleep(task_manager.currt_task, (ms + (OS_TICKS_MS - 1)) / OS_TICKS_MS);
   10884:	8b 45 08             	mov    0x8(%ebp),%eax
   10887:	83 c0 09             	add    $0x9,%eax
   1088a:	ba cd cc cc cc       	mov    $0xcccccccd,%edx
   1088f:	f7 e2                	mul    %edx
   10891:	c1 ea 03             	shr    $0x3,%edx
   10894:	a1 a0 31 01 00       	mov    0x131a0,%eax
   10899:	83 ec 08             	sub    $0x8,%esp
   1089c:	52                   	push   %edx
   1089d:	50                   	push   %eax
   1089e:	e8 68 ff ff ff       	call   1080b <task_set_sleep>
   108a3:	83 c4 10             	add    $0x10,%esp
    task_dispatch();
   108a6:	e8 42 fe ff ff       	call   106ed <task_dispatch>
    irq_leave_protection(state);
   108ab:	83 ec 0c             	sub    $0xc,%esp
   108ae:	ff 75 f4             	push   -0xc(%ebp)
   108b1:	e8 c2 09 00 00       	call   11278 <irq_leave_protection>
   108b6:	83 c4 10             	add    $0x10,%esp
}
   108b9:	90                   	nop
   108ba:	c9                   	leave
   108bb:	c3                   	ret

000108bc <lgdt>:
    desc->attr = attr;
    desc->offset31_16 = (offset >> 16) & 0xFFFF;
}

// 从gdt表中找到一个空闲的项设置给tss
int gdt_alloc_des(void)
   108bc:	55                   	push   %ebp
   108bd:	89 e5                	mov    %esp,%ebp
   108bf:	83 ec 10             	sub    $0x10,%esp
    // 跳过第0项
    for (int i = 1; i < GDT_TABLE_SIZE; i++)
    {
        segment_desc_t *desc = gdt_table + i;
        if (desc->attr == 0)
        {
   108c2:	8b 45 08             	mov    0x8(%ebp),%eax
   108c5:	c1 e8 10             	shr    $0x10,%eax
   108c8:	66 89 45 fe          	mov    %ax,-0x2(%ebp)
            irq_leave_protection(state);
   108cc:	8b 45 08             	mov    0x8(%ebp),%eax
   108cf:	66 89 45 fc          	mov    %ax,-0x4(%ebp)
            return i * sizeof(segment_desc_t);
   108d3:	8b 45 0c             	mov    0xc(%ebp),%eax
   108d6:	83 e8 01             	sub    $0x1,%eax
   108d9:	66 89 45 fa          	mov    %ax,-0x6(%ebp)
        }
   108dd:	0f 01 55 fa          	lgdtl  -0x6(%ebp)
    }
   108e1:	90                   	nop
   108e2:	c9                   	leave
   108e3:	c3                   	ret

000108e4 <far_jump>:
   108e4:	55                   	push   %ebp
   108e5:	89 e5                	mov    %esp,%ebp
   108e7:	83 ec 10             	sub    $0x10,%esp
   108ea:	8b 45 0c             	mov    0xc(%ebp),%eax
   108ed:	89 45 f8             	mov    %eax,-0x8(%ebp)
   108f0:	8b 45 08             	mov    0x8(%ebp),%eax
   108f3:	89 45 fc             	mov    %eax,-0x4(%ebp)
   108f6:	8d 45 f8             	lea    -0x8(%ebp),%eax
   108f9:	ff 28                	ljmp   *(%eax)
   108fb:	90                   	nop
   108fc:	c9                   	leave
   108fd:	c3                   	ret

000108fe <segment_desc_set>:
{
   108fe:	55                   	push   %ebp
   108ff:	89 e5                	mov    %esp,%ebp
   10901:	83 ec 14             	sub    $0x14,%esp
   10904:	8b 45 14             	mov    0x14(%ebp),%eax
   10907:	66 89 45 ec          	mov    %ax,-0x14(%ebp)
    segment_desc_t *desc = gdt_table + selector / sizeof(segment_desc_t);
   1090b:	8b 45 08             	mov    0x8(%ebp),%eax
   1090e:	83 e0 f8             	and    $0xfffffff8,%eax
   10911:	05 40 33 01 00       	add    $0x13340,%eax
   10916:	89 45 fc             	mov    %eax,-0x4(%ebp)
    if (limit > 0xFFFFF)
   10919:	81 7d 10 ff ff 0f 00 	cmpl   $0xfffff,0x10(%ebp)
   10920:	76 0f                	jbe    10931 <segment_desc_set+0x33>
        attr |= SEG_G;
   10922:	66 81 4d ec 00 80    	orw    $0x8000,-0x14(%ebp)
        limit /= 0x1000;
   10928:	8b 45 10             	mov    0x10(%ebp),%eax
   1092b:	c1 e8 0c             	shr    $0xc,%eax
   1092e:	89 45 10             	mov    %eax,0x10(%ebp)
    desc->limit15_0 = limit & 0xFFFF;
   10931:	8b 45 10             	mov    0x10(%ebp),%eax
   10934:	89 c2                	mov    %eax,%edx
   10936:	8b 45 fc             	mov    -0x4(%ebp),%eax
   10939:	66 89 10             	mov    %dx,(%eax)
    desc->base15_0 = base & 0xFFFF;
   1093c:	8b 45 0c             	mov    0xc(%ebp),%eax
   1093f:	89 c2                	mov    %eax,%edx
   10941:	8b 45 fc             	mov    -0x4(%ebp),%eax
   10944:	66 89 50 02          	mov    %dx,0x2(%eax)
    desc->base23_16 = (base >> 16) & 0xFF;
   10948:	8b 45 0c             	mov    0xc(%ebp),%eax
   1094b:	c1 e8 10             	shr    $0x10,%eax
   1094e:	89 c2                	mov    %eax,%edx
   10950:	8b 45 fc             	mov    -0x4(%ebp),%eax
   10953:	88 50 04             	mov    %dl,0x4(%eax)
    desc->attr = attr | (((limit >> 16) & 0xF) << 8);
   10956:	8b 45 10             	mov    0x10(%ebp),%eax
   10959:	c1 e8 10             	shr    $0x10,%eax
   1095c:	c1 e0 08             	shl    $0x8,%eax
   1095f:	66 25 00 0f          	and    $0xf00,%ax
   10963:	66 0b 45 ec          	or     -0x14(%ebp),%ax
   10967:	89 c2                	mov    %eax,%edx
   10969:	8b 45 fc             	mov    -0x4(%ebp),%eax
   1096c:	66 89 50 05          	mov    %dx,0x5(%eax)
    desc->base31_24 = (base >> 24) & 0xFF;
   10970:	8b 45 0c             	mov    0xc(%ebp),%eax
   10973:	c1 e8 18             	shr    $0x18,%eax
   10976:	89 c2                	mov    %eax,%edx
   10978:	8b 45 fc             	mov    -0x4(%ebp),%eax
   1097b:	88 50 07             	mov    %dl,0x7(%eax)
}
   1097e:	90                   	nop
   1097f:	c9                   	leave
   10980:	c3                   	ret

00010981 <init_gdt>:
{
   10981:	55                   	push   %ebp
   10982:	89 e5                	mov    %esp,%ebp
   10984:	83 ec 10             	sub    $0x10,%esp
    for (int i = 0; i < GDT_TABLE_SIZE; i++)
   10987:	c7 45 fc 00 00 00 00 	movl   $0x0,-0x4(%ebp)
   1098e:	eb 19                	jmp    109a9 <init_gdt+0x28>
        segment_desc_set(i * sizeof(segment_desc_t), 0, 0, 0);
   10990:	8b 45 fc             	mov    -0x4(%ebp),%eax
   10993:	c1 e0 03             	shl    $0x3,%eax
   10996:	6a 00                	push   $0x0
   10998:	6a 00                	push   $0x0
   1099a:	6a 00                	push   $0x0
   1099c:	50                   	push   %eax
   1099d:	e8 5c ff ff ff       	call   108fe <segment_desc_set>
   109a2:	83 c4 10             	add    $0x10,%esp
    for (int i = 0; i < GDT_TABLE_SIZE; i++)
   109a5:	83 45 fc 01          	addl   $0x1,-0x4(%ebp)
   109a9:	81 7d fc ff 00 00 00 	cmpl   $0xff,-0x4(%ebp)
   109b0:	7e de                	jle    10990 <init_gdt+0xf>
    segment_desc_set(KERNEL_SELECTOR_DS, 0, 0xFFFFFFFF, SEG_PRESENT | SEG_DPL0 | SEG_S_NORMAL | SEG_TYPE_DATA | SEG_TYPE_RW | SEG_D);
   109b2:	68 92 40 00 00       	push   $0x4092
   109b7:	6a ff                	push   $0xffffffff
   109b9:	6a 00                	push   $0x0
   109bb:	6a 10                	push   $0x10
   109bd:	e8 3c ff ff ff       	call   108fe <segment_desc_set>
   109c2:	83 c4 10             	add    $0x10,%esp
    segment_desc_set(KERNEL_SELECTOR_CS, 0, 0xFFFFFFFF, SEG_PRESENT | SEG_DPL0 | SEG_S_NORMAL | SEG_TYPE_CODE | SEG_TYPE_RW | SEG_D);
   109c5:	68 9a 40 00 00       	push   $0x409a
   109ca:	6a ff                	push   $0xffffffff
   109cc:	6a 00                	push   $0x0
   109ce:	6a 08                	push   $0x8
   109d0:	e8 29 ff ff ff       	call   108fe <segment_desc_set>
   109d5:	83 c4 10             	add    $0x10,%esp
    lgdt((uint32_t)gdt_table, sizeof(gdt_table));
   109d8:	b8 40 33 01 00       	mov    $0x13340,%eax
   109dd:	68 00 08 00 00       	push   $0x800
   109e2:	50                   	push   %eax
   109e3:	e8 d4 fe ff ff       	call   108bc <lgdt>
   109e8:	83 c4 08             	add    $0x8,%esp
}
   109eb:	90                   	nop
   109ec:	c9                   	leave
   109ed:	c3                   	ret

000109ee <gate_desc_set>:
{
   109ee:	55                   	push   %ebp
   109ef:	89 e5                	mov    %esp,%ebp
   109f1:	83 ec 08             	sub    $0x8,%esp
   109f4:	8b 55 0c             	mov    0xc(%ebp),%edx
   109f7:	8b 45 14             	mov    0x14(%ebp),%eax
   109fa:	66 89 55 fc          	mov    %dx,-0x4(%ebp)
   109fe:	66 89 45 f8          	mov    %ax,-0x8(%ebp)
    desc->offset15_0 = offset & 0xFFFF;
   10a02:	8b 45 10             	mov    0x10(%ebp),%eax
   10a05:	89 c2                	mov    %eax,%edx
   10a07:	8b 45 08             	mov    0x8(%ebp),%eax
   10a0a:	66 89 10             	mov    %dx,(%eax)
    desc->selector = selector;
   10a0d:	8b 45 08             	mov    0x8(%ebp),%eax
   10a10:	0f b7 55 fc          	movzwl -0x4(%ebp),%edx
   10a14:	66 89 50 02          	mov    %dx,0x2(%eax)
    desc->attr = attr;
   10a18:	8b 45 08             	mov    0x8(%ebp),%eax
   10a1b:	0f b7 55 f8          	movzwl -0x8(%ebp),%edx
   10a1f:	66 89 50 04          	mov    %dx,0x4(%eax)
    desc->offset31_16 = (offset >> 16) & 0xFFFF;
   10a23:	8b 45 10             	mov    0x10(%ebp),%eax
   10a26:	c1 e8 10             	shr    $0x10,%eax
   10a29:	89 c2                	mov    %eax,%edx
   10a2b:	8b 45 08             	mov    0x8(%ebp),%eax
   10a2e:	66 89 50 06          	mov    %dx,0x6(%eax)
}
   10a32:	90                   	nop
   10a33:	c9                   	leave
   10a34:	c3                   	ret

00010a35 <gdt_alloc_des>:
{
   10a35:	55                   	push   %ebp
   10a36:	89 e5                	mov    %esp,%ebp
   10a38:	83 ec 18             	sub    $0x18,%esp
    irq_state_t state = irq_enter_protection();
   10a3b:	e8 20 08 00 00       	call   11260 <irq_enter_protection>
   10a40:	89 45 f0             	mov    %eax,-0x10(%ebp)
    for (int i = 1; i < GDT_TABLE_SIZE; i++)
   10a43:	c7 45 f4 01 00 00 00 	movl   $0x1,-0xc(%ebp)
   10a4a:	eb 34                	jmp    10a80 <gdt_alloc_des+0x4b>
        segment_desc_t *desc = gdt_table + i;
   10a4c:	8b 45 f4             	mov    -0xc(%ebp),%eax
   10a4f:	c1 e0 03             	shl    $0x3,%eax
   10a52:	05 40 33 01 00       	add    $0x13340,%eax
   10a57:	89 45 ec             	mov    %eax,-0x14(%ebp)
        if (desc->attr == 0)
   10a5a:	8b 45 ec             	mov    -0x14(%ebp),%eax
   10a5d:	0f b7 40 05          	movzwl 0x5(%eax),%eax
   10a61:	66 85 c0             	test   %ax,%ax
   10a64:	75 16                	jne    10a7c <gdt_alloc_des+0x47>
            irq_leave_protection(state);
   10a66:	83 ec 0c             	sub    $0xc,%esp
   10a69:	ff 75 f0             	push   -0x10(%ebp)
   10a6c:	e8 07 08 00 00       	call   11278 <irq_leave_protection>
   10a71:	83 c4 10             	add    $0x10,%esp
            return i * sizeof(segment_desc_t);
   10a74:	8b 45 f4             	mov    -0xc(%ebp),%eax
   10a77:	c1 e0 03             	shl    $0x3,%eax
   10a7a:	eb 20                	jmp    10a9c <gdt_alloc_des+0x67>
    for (int i = 1; i < GDT_TABLE_SIZE; i++)
   10a7c:	83 45 f4 01          	addl   $0x1,-0xc(%ebp)
   10a80:	81 7d f4 ff 00 00 00 	cmpl   $0xff,-0xc(%ebp)
   10a87:	7e c3                	jle    10a4c <gdt_alloc_des+0x17>
    irq_leave_protection(state);
   10a89:	83 ec 0c             	sub    $0xc,%esp
   10a8c:	ff 75 f0             	push   -0x10(%ebp)
   10a8f:	e8 e4 07 00 00       	call   11278 <irq_leave_protection>
   10a94:	83 c4 10             	add    $0x10,%esp
    return -1;
   10a97:	b8 ff ff ff ff       	mov    $0xffffffff,%eax
}
   10a9c:	c9                   	leave
   10a9d:	c3                   	ret

00010a9e <switch_to_tss>:
{
   10a9e:	55                   	push   %ebp
   10a9f:	89 e5                	mov    %esp,%ebp
    far_jump(tss_sel, 0);
   10aa1:	6a 00                	push   $0x0
   10aa3:	ff 75 08             	push   0x8(%ebp)
   10aa6:	e8 39 fe ff ff       	call   108e4 <far_jump>
   10aab:	83 c4 08             	add    $0x8,%esp
}
   10aae:	90                   	nop
   10aaf:	c9                   	leave
   10ab0:	c3                   	ret

00010ab1 <cpu_init>:
{
   10ab1:	55                   	push   %ebp
   10ab2:	89 e5                	mov    %esp,%ebp
    init_gdt();
   10ab4:	e8 c8 fe ff ff       	call   10981 <init_gdt>
   10ab9:	90                   	nop
   10aba:	5d                   	pop    %ebp
   10abb:	c3                   	ret

00010abc <inb>:
static void dump_core_regs(exception_frame_t *frame)
{
    log_prinf("IRQ: %d,errorCode: %d", frame->num, frame->error_code);
    log_prinf("CS:%d\nDS:%d\n ES:%d\nSS:%d\nFS:%d\nGS:%d\n",
              frame->cs, frame->ds, frame->es, frame->ds, frame->fs, frame->gs);

   10abc:	55                   	push   %ebp
   10abd:	89 e5                	mov    %esp,%ebp
   10abf:	83 ec 14             	sub    $0x14,%esp
   10ac2:	8b 45 08             	mov    0x8(%ebp),%eax
   10ac5:	66 89 45 ec          	mov    %ax,-0x14(%ebp)
    log_prinf("EAX: 0x%x\n"
              "EBX: 0x%x\n"
   10ac9:	0f b7 45 ec          	movzwl -0x14(%ebp),%eax
   10acd:	89 c2                	mov    %eax,%edx
   10acf:	ec                   	in     (%dx),%al
   10ad0:	88 45 ff             	mov    %al,-0x1(%ebp)
              "ECX: 0x%x\n"
              "EDX: 0x%x\n"
              "EDI: 0x%x\n"
   10ad3:	0f b6 45 ff          	movzbl -0x1(%ebp),%eax
              "ESI: 0x%x\n"
   10ad7:	c9                   	leave
   10ad8:	c3                   	ret

00010ad9 <outb>:
    // 发生异常的地址
    log_prinf("EIP: 0x%x\nEFLPAGS: 0x%x\n", frame->eip, frame->eflags);
}

static void do_default_handler(exception_frame_t *frame, const char *message)
{
   10ad9:	55                   	push   %ebp
   10ada:	89 e5                	mov    %esp,%ebp
   10adc:	83 ec 08             	sub    $0x8,%esp
   10adf:	8b 55 08             	mov    0x8(%ebp),%edx
   10ae2:	8b 45 0c             	mov    0xc(%ebp),%eax
   10ae5:	66 89 55 fc          	mov    %dx,-0x4(%ebp)
   10ae9:	88 45 f8             	mov    %al,-0x8(%ebp)
    log_prinf("----------------------------");
   10aec:	0f b7 55 fc          	movzwl -0x4(%ebp),%edx
   10af0:	0f b6 45 f8          	movzbl -0x8(%ebp),%eax
   10af4:	ee                   	out    %al,(%dx)
    log_prinf("IRQ/Exception %s", message);
   10af5:	90                   	nop
   10af6:	c9                   	leave
   10af7:	c3                   	ret

00010af8 <cli>:
    dump_core_regs(frame);
    for (;;)
    {
        // 如果发生异常让cpu暂停运行
   10af8:	55                   	push   %ebp
   10af9:	89 e5                	mov    %esp,%ebp
        hlt();
   10afb:	fa                   	cli
    }
   10afc:	90                   	nop
   10afd:	5d                   	pop    %ebp
   10afe:	c3                   	ret

00010aff <sti>:
}
// 中断异常处理函数
void do_handler_unknow(exception_frame_t *frame)
{
   10aff:	55                   	push   %ebp
   10b00:	89 e5                	mov    %esp,%ebp
    do_default_handler(frame, "unknow exception!!!");
   10b02:	fb                   	sti
}
   10b03:	90                   	nop
   10b04:	5d                   	pop    %ebp
   10b05:	c3                   	ret

00010b06 <lidt>:
    do_default_handler(frame, "NMI Interrupt.");
}

void do_handler_breakpoint(exception_frame_t *frame)
{
    do_default_handler(frame, "Breakpoint.");
   10b06:	55                   	push   %ebp
   10b07:	89 e5                	mov    %esp,%ebp
   10b09:	83 ec 10             	sub    $0x10,%esp
void do_handler_overflow(exception_frame_t *frame)
{
    do_default_handler(frame, "Overflow.");
}

void do_handler_bound_range(exception_frame_t *frame)
   10b0c:	8b 45 08             	mov    0x8(%ebp),%eax
   10b0f:	c1 e8 10             	shr    $0x10,%eax
   10b12:	66 89 45 fe          	mov    %ax,-0x2(%ebp)
{
   10b16:	8b 45 08             	mov    0x8(%ebp),%eax
   10b19:	66 89 45 fc          	mov    %ax,-0x4(%ebp)
    do_default_handler(frame, "BOUND Range Exceeded.");
   10b1d:	8b 45 0c             	mov    0xc(%ebp),%eax
   10b20:	83 e8 01             	sub    $0x1,%eax
   10b23:	66 89 45 fa          	mov    %ax,-0x6(%ebp)
}
   10b27:	0f 01 5d fa          	lidtl  -0x6(%ebp)

   10b2b:	90                   	nop
   10b2c:	c9                   	leave
   10b2d:	c3                   	ret

00010b2e <hlt>:
    do_default_handler(frame, "Invalid TSS");
}

void do_handler_segment_not_present(exception_frame_t *frame)
{
    do_default_handler(frame, "Segment Not Present.");
   10b2e:	55                   	push   %ebp
   10b2f:	89 e5                	mov    %esp,%ebp
}
   10b31:	f4                   	hlt

   10b32:	90                   	nop
   10b33:	5d                   	pop    %ebp
   10b34:	c3                   	ret

00010b35 <read_eflags>:
    do_default_handler(frame, "Stack-Segment Fault.");
}

void do_handler_general_protection(exception_frame_t *frame)
{
    do_default_handler(frame, "General Protection.");
   10b35:	55                   	push   %ebp
   10b36:	89 e5                	mov    %esp,%ebp
   10b38:	83 ec 10             	sub    $0x10,%esp
}

   10b3b:	9c                   	pushf
   10b3c:	58                   	pop    %eax
   10b3d:	89 45 fc             	mov    %eax,-0x4(%ebp)
void do_handler_page_fault(exception_frame_t *frame)
   10b40:	8b 45 fc             	mov    -0x4(%ebp),%eax
{
   10b43:	c9                   	leave
   10b44:	c3                   	ret

00010b45 <write_eflags>:
    do_default_handler(frame, "Page Fault.");
}

   10b45:	55                   	push   %ebp
   10b46:	89 e5                	mov    %esp,%ebp
void do_handler_fpu_error(exception_frame_t *frame)
   10b48:	8b 45 08             	mov    0x8(%ebp),%eax
   10b4b:	50                   	push   %eax
   10b4c:	9d                   	popf
{
   10b4d:	90                   	nop
   10b4e:	5d                   	pop    %ebp
   10b4f:	c3                   	ret

00010b50 <dump_core_regs>:
{
   10b50:	55                   	push   %ebp
   10b51:	89 e5                	mov    %esp,%ebp
   10b53:	57                   	push   %edi
   10b54:	56                   	push   %esi
   10b55:	53                   	push   %ebx
   10b56:	83 ec 1c             	sub    $0x1c,%esp
    log_prinf("IRQ: %d,errorCode: %d", frame->num, frame->error_code);
   10b59:	8b 45 08             	mov    0x8(%ebp),%eax
   10b5c:	8b 50 34             	mov    0x34(%eax),%edx
   10b5f:	8b 45 08             	mov    0x8(%ebp),%eax
   10b62:	8b 40 30             	mov    0x30(%eax),%eax
   10b65:	83 ec 04             	sub    $0x4,%esp
   10b68:	52                   	push   %edx
   10b69:	50                   	push   %eax
   10b6a:	68 98 1e 01 00       	push   $0x11e98
   10b6f:	e8 b7 11 00 00       	call   11d2b <log_prinf>
   10b74:	83 c4 10             	add    $0x10,%esp
    log_prinf("CS:%d\nDS:%d\n ES:%d\nSS:%d\nFS:%d\nGS:%d\n",
   10b77:	8b 45 08             	mov    0x8(%ebp),%eax
   10b7a:	8b 38                	mov    (%eax),%edi
   10b7c:	8b 45 08             	mov    0x8(%ebp),%eax
   10b7f:	8b 70 04             	mov    0x4(%eax),%esi
   10b82:	8b 45 08             	mov    0x8(%ebp),%eax
   10b85:	8b 58 0c             	mov    0xc(%eax),%ebx
   10b88:	8b 45 08             	mov    0x8(%ebp),%eax
   10b8b:	8b 48 08             	mov    0x8(%eax),%ecx
   10b8e:	8b 45 08             	mov    0x8(%ebp),%eax
   10b91:	8b 50 0c             	mov    0xc(%eax),%edx
   10b94:	8b 45 08             	mov    0x8(%ebp),%eax
   10b97:	8b 40 3c             	mov    0x3c(%eax),%eax
   10b9a:	83 ec 04             	sub    $0x4,%esp
   10b9d:	57                   	push   %edi
   10b9e:	56                   	push   %esi
   10b9f:	53                   	push   %ebx
   10ba0:	51                   	push   %ecx
   10ba1:	52                   	push   %edx
   10ba2:	50                   	push   %eax
   10ba3:	68 b0 1e 01 00       	push   $0x11eb0
   10ba8:	e8 7e 11 00 00       	call   11d2b <log_prinf>
   10bad:	83 c4 20             	add    $0x20,%esp
    log_prinf("EAX: 0x%x\n"
   10bb0:	8b 45 08             	mov    0x8(%ebp),%eax
   10bb3:	8b 48 1c             	mov    0x1c(%eax),%ecx
   10bb6:	8b 45 08             	mov    0x8(%ebp),%eax
   10bb9:	8b 40 18             	mov    0x18(%eax),%eax
   10bbc:	89 45 e4             	mov    %eax,-0x1c(%ebp)
   10bbf:	8b 45 08             	mov    0x8(%ebp),%eax
   10bc2:	8b 58 14             	mov    0x14(%eax),%ebx
   10bc5:	89 5d e0             	mov    %ebx,-0x20(%ebp)
   10bc8:	8b 45 08             	mov    0x8(%ebp),%eax
   10bcb:	8b 78 10             	mov    0x10(%eax),%edi
   10bce:	8b 45 08             	mov    0x8(%ebp),%eax
   10bd1:	8b 70 24             	mov    0x24(%eax),%esi
   10bd4:	8b 45 08             	mov    0x8(%ebp),%eax
   10bd7:	8b 58 28             	mov    0x28(%eax),%ebx
   10bda:	8b 45 08             	mov    0x8(%ebp),%eax
   10bdd:	8b 50 20             	mov    0x20(%eax),%edx
   10be0:	8b 45 08             	mov    0x8(%ebp),%eax
   10be3:	8b 40 2c             	mov    0x2c(%eax),%eax
   10be6:	83 ec 0c             	sub    $0xc,%esp
   10be9:	51                   	push   %ecx
   10bea:	ff 75 e4             	push   -0x1c(%ebp)
   10bed:	ff 75 e0             	push   -0x20(%ebp)
   10bf0:	57                   	push   %edi
   10bf1:	56                   	push   %esi
   10bf2:	53                   	push   %ebx
   10bf3:	52                   	push   %edx
   10bf4:	50                   	push   %eax
   10bf5:	68 d8 1e 01 00       	push   $0x11ed8
   10bfa:	e8 2c 11 00 00       	call   11d2b <log_prinf>
   10bff:	83 c4 30             	add    $0x30,%esp
    log_prinf("EIP: 0x%x\nEFLPAGS: 0x%x\n", frame->eip, frame->eflags);
   10c02:	8b 45 08             	mov    0x8(%ebp),%eax
   10c05:	8b 50 40             	mov    0x40(%eax),%edx
   10c08:	8b 45 08             	mov    0x8(%ebp),%eax
   10c0b:	8b 40 38             	mov    0x38(%eax),%eax
   10c0e:	83 ec 04             	sub    $0x4,%esp
   10c11:	52                   	push   %edx
   10c12:	50                   	push   %eax
   10c13:	68 29 1f 01 00       	push   $0x11f29
   10c18:	e8 0e 11 00 00       	call   11d2b <log_prinf>
   10c1d:	83 c4 10             	add    $0x10,%esp
}
   10c20:	90                   	nop
   10c21:	8d 65 f4             	lea    -0xc(%ebp),%esp
   10c24:	5b                   	pop    %ebx
   10c25:	5e                   	pop    %esi
   10c26:	5f                   	pop    %edi
   10c27:	5d                   	pop    %ebp
   10c28:	c3                   	ret

00010c29 <do_default_handler>:
{
   10c29:	55                   	push   %ebp
   10c2a:	89 e5                	mov    %esp,%ebp
   10c2c:	83 ec 08             	sub    $0x8,%esp
    log_prinf("----------------------------");
   10c2f:	83 ec 0c             	sub    $0xc,%esp
   10c32:	68 42 1f 01 00       	push   $0x11f42
   10c37:	e8 ef 10 00 00       	call   11d2b <log_prinf>
   10c3c:	83 c4 10             	add    $0x10,%esp
    log_prinf("IRQ/Exception %s", message);
   10c3f:	83 ec 08             	sub    $0x8,%esp
   10c42:	ff 75 0c             	push   0xc(%ebp)
   10c45:	68 5f 1f 01 00       	push   $0x11f5f
   10c4a:	e8 dc 10 00 00       	call   11d2b <log_prinf>
   10c4f:	83 c4 10             	add    $0x10,%esp
    dump_core_regs(frame);
   10c52:	83 ec 0c             	sub    $0xc,%esp
   10c55:	ff 75 08             	push   0x8(%ebp)
   10c58:	e8 f3 fe ff ff       	call   10b50 <dump_core_regs>
   10c5d:	83 c4 10             	add    $0x10,%esp
        hlt();
   10c60:	e8 c9 fe ff ff       	call   10b2e <hlt>
   10c65:	eb f9                	jmp    10c60 <do_default_handler+0x37>

00010c67 <do_handler_unknow>:
{
   10c67:	55                   	push   %ebp
   10c68:	89 e5                	mov    %esp,%ebp
   10c6a:	83 ec 08             	sub    $0x8,%esp
    do_default_handler(frame, "unknow exception!!!");
   10c6d:	83 ec 08             	sub    $0x8,%esp
   10c70:	68 70 1f 01 00       	push   $0x11f70
   10c75:	ff 75 08             	push   0x8(%ebp)
   10c78:	e8 ac ff ff ff       	call   10c29 <do_default_handler>
   10c7d:	83 c4 10             	add    $0x10,%esp
}
   10c80:	90                   	nop
   10c81:	c9                   	leave
   10c82:	c3                   	ret

00010c83 <do_handler_divider>:
{
   10c83:	55                   	push   %ebp
   10c84:	89 e5                	mov    %esp,%ebp
   10c86:	83 ec 08             	sub    $0x8,%esp
    do_default_handler(frame, "divider exception!!!");
   10c89:	83 ec 08             	sub    $0x8,%esp
   10c8c:	68 84 1f 01 00       	push   $0x11f84
   10c91:	ff 75 08             	push   0x8(%ebp)
   10c94:	e8 90 ff ff ff       	call   10c29 <do_default_handler>
   10c99:	83 c4 10             	add    $0x10,%esp
}
   10c9c:	90                   	nop
   10c9d:	c9                   	leave
   10c9e:	c3                   	ret

00010c9f <do_handler_Debug>:
{
   10c9f:	55                   	push   %ebp
   10ca0:	89 e5                	mov    %esp,%ebp
   10ca2:	83 ec 08             	sub    $0x8,%esp
    do_default_handler(frame, "Debug Exception");
   10ca5:	83 ec 08             	sub    $0x8,%esp
   10ca8:	68 99 1f 01 00       	push   $0x11f99
   10cad:	ff 75 08             	push   0x8(%ebp)
   10cb0:	e8 74 ff ff ff       	call   10c29 <do_default_handler>
   10cb5:	83 c4 10             	add    $0x10,%esp
}
   10cb8:	90                   	nop
   10cb9:	c9                   	leave
   10cba:	c3                   	ret

00010cbb <do_handler_NMI>:
{
   10cbb:	55                   	push   %ebp
   10cbc:	89 e5                	mov    %esp,%ebp
   10cbe:	83 ec 08             	sub    $0x8,%esp
    do_default_handler(frame, "NMI Interrupt.");
   10cc1:	83 ec 08             	sub    $0x8,%esp
   10cc4:	68 a9 1f 01 00       	push   $0x11fa9
   10cc9:	ff 75 08             	push   0x8(%ebp)
   10ccc:	e8 58 ff ff ff       	call   10c29 <do_default_handler>
   10cd1:	83 c4 10             	add    $0x10,%esp
}
   10cd4:	90                   	nop
   10cd5:	c9                   	leave
   10cd6:	c3                   	ret

00010cd7 <do_handler_breakpoint>:
{
   10cd7:	55                   	push   %ebp
   10cd8:	89 e5                	mov    %esp,%ebp
   10cda:	83 ec 08             	sub    $0x8,%esp
    do_default_handler(frame, "Breakpoint.");
   10cdd:	83 ec 08             	sub    $0x8,%esp
   10ce0:	68 b8 1f 01 00       	push   $0x11fb8
   10ce5:	ff 75 08             	push   0x8(%ebp)
   10ce8:	e8 3c ff ff ff       	call   10c29 <do_default_handler>
   10ced:	83 c4 10             	add    $0x10,%esp
}
   10cf0:	90                   	nop
   10cf1:	c9                   	leave
   10cf2:	c3                   	ret

00010cf3 <do_handler_overflow>:
{
   10cf3:	55                   	push   %ebp
   10cf4:	89 e5                	mov    %esp,%ebp
   10cf6:	83 ec 08             	sub    $0x8,%esp
    do_default_handler(frame, "Overflow.");
   10cf9:	83 ec 08             	sub    $0x8,%esp
   10cfc:	68 c4 1f 01 00       	push   $0x11fc4
   10d01:	ff 75 08             	push   0x8(%ebp)
   10d04:	e8 20 ff ff ff       	call   10c29 <do_default_handler>
   10d09:	83 c4 10             	add    $0x10,%esp
}
   10d0c:	90                   	nop
   10d0d:	c9                   	leave
   10d0e:	c3                   	ret

00010d0f <do_handler_bound_range>:
{
   10d0f:	55                   	push   %ebp
   10d10:	89 e5                	mov    %esp,%ebp
   10d12:	83 ec 08             	sub    $0x8,%esp
    do_default_handler(frame, "BOUND Range Exceeded.");
   10d15:	83 ec 08             	sub    $0x8,%esp
   10d18:	68 ce 1f 01 00       	push   $0x11fce
   10d1d:	ff 75 08             	push   0x8(%ebp)
   10d20:	e8 04 ff ff ff       	call   10c29 <do_default_handler>
   10d25:	83 c4 10             	add    $0x10,%esp
}
   10d28:	90                   	nop
   10d29:	c9                   	leave
   10d2a:	c3                   	ret

00010d2b <do_handler_invalid_opcode>:
{
   10d2b:	55                   	push   %ebp
   10d2c:	89 e5                	mov    %esp,%ebp
   10d2e:	83 ec 08             	sub    $0x8,%esp
    do_default_handler(frame, "Invalid Opcode.");
   10d31:	83 ec 08             	sub    $0x8,%esp
   10d34:	68 e4 1f 01 00       	push   $0x11fe4
   10d39:	ff 75 08             	push   0x8(%ebp)
   10d3c:	e8 e8 fe ff ff       	call   10c29 <do_default_handler>
   10d41:	83 c4 10             	add    $0x10,%esp
}
   10d44:	90                   	nop
   10d45:	c9                   	leave
   10d46:	c3                   	ret

00010d47 <do_handler_device_unavailable>:
{
   10d47:	55                   	push   %ebp
   10d48:	89 e5                	mov    %esp,%ebp
   10d4a:	83 ec 08             	sub    $0x8,%esp
    do_default_handler(frame, "Device Not Available.");
   10d4d:	83 ec 08             	sub    $0x8,%esp
   10d50:	68 f4 1f 01 00       	push   $0x11ff4
   10d55:	ff 75 08             	push   0x8(%ebp)
   10d58:	e8 cc fe ff ff       	call   10c29 <do_default_handler>
   10d5d:	83 c4 10             	add    $0x10,%esp
}
   10d60:	90                   	nop
   10d61:	c9                   	leave
   10d62:	c3                   	ret

00010d63 <do_handler_double_fault>:
{
   10d63:	55                   	push   %ebp
   10d64:	89 e5                	mov    %esp,%ebp
   10d66:	83 ec 08             	sub    $0x8,%esp
    do_default_handler(frame, "Double Fault.");
   10d69:	83 ec 08             	sub    $0x8,%esp
   10d6c:	68 0a 20 01 00       	push   $0x1200a
   10d71:	ff 75 08             	push   0x8(%ebp)
   10d74:	e8 b0 fe ff ff       	call   10c29 <do_default_handler>
   10d79:	83 c4 10             	add    $0x10,%esp
}
   10d7c:	90                   	nop
   10d7d:	c9                   	leave
   10d7e:	c3                   	ret

00010d7f <do_handler_invalid_tss>:
{
   10d7f:	55                   	push   %ebp
   10d80:	89 e5                	mov    %esp,%ebp
   10d82:	83 ec 08             	sub    $0x8,%esp
    do_default_handler(frame, "Invalid TSS");
   10d85:	83 ec 08             	sub    $0x8,%esp
   10d88:	68 18 20 01 00       	push   $0x12018
   10d8d:	ff 75 08             	push   0x8(%ebp)
   10d90:	e8 94 fe ff ff       	call   10c29 <do_default_handler>
   10d95:	83 c4 10             	add    $0x10,%esp
}
   10d98:	90                   	nop
   10d99:	c9                   	leave
   10d9a:	c3                   	ret

00010d9b <do_handler_segment_not_present>:
{
   10d9b:	55                   	push   %ebp
   10d9c:	89 e5                	mov    %esp,%ebp
   10d9e:	83 ec 08             	sub    $0x8,%esp
    do_default_handler(frame, "Segment Not Present.");
   10da1:	83 ec 08             	sub    $0x8,%esp
   10da4:	68 24 20 01 00       	push   $0x12024
   10da9:	ff 75 08             	push   0x8(%ebp)
   10dac:	e8 78 fe ff ff       	call   10c29 <do_default_handler>
   10db1:	83 c4 10             	add    $0x10,%esp
}
   10db4:	90                   	nop
   10db5:	c9                   	leave
   10db6:	c3                   	ret

00010db7 <do_handler_stack_segment_fault>:
{
   10db7:	55                   	push   %ebp
   10db8:	89 e5                	mov    %esp,%ebp
   10dba:	83 ec 08             	sub    $0x8,%esp
    do_default_handler(frame, "Stack-Segment Fault.");
   10dbd:	83 ec 08             	sub    $0x8,%esp
   10dc0:	68 39 20 01 00       	push   $0x12039
   10dc5:	ff 75 08             	push   0x8(%ebp)
   10dc8:	e8 5c fe ff ff       	call   10c29 <do_default_handler>
   10dcd:	83 c4 10             	add    $0x10,%esp
}
   10dd0:	90                   	nop
   10dd1:	c9                   	leave
   10dd2:	c3                   	ret

00010dd3 <do_handler_general_protection>:
{
   10dd3:	55                   	push   %ebp
   10dd4:	89 e5                	mov    %esp,%ebp
   10dd6:	83 ec 08             	sub    $0x8,%esp
    do_default_handler(frame, "General Protection.");
   10dd9:	83 ec 08             	sub    $0x8,%esp
   10ddc:	68 4e 20 01 00       	push   $0x1204e
   10de1:	ff 75 08             	push   0x8(%ebp)
   10de4:	e8 40 fe ff ff       	call   10c29 <do_default_handler>
   10de9:	83 c4 10             	add    $0x10,%esp
}
   10dec:	90                   	nop
   10ded:	c9                   	leave
   10dee:	c3                   	ret

00010def <do_handler_page_fault>:
{
   10def:	55                   	push   %ebp
   10df0:	89 e5                	mov    %esp,%ebp
   10df2:	83 ec 08             	sub    $0x8,%esp
    do_default_handler(frame, "Page Fault.");
   10df5:	83 ec 08             	sub    $0x8,%esp
   10df8:	68 62 20 01 00       	push   $0x12062
   10dfd:	ff 75 08             	push   0x8(%ebp)
   10e00:	e8 24 fe ff ff       	call   10c29 <do_default_handler>
   10e05:	83 c4 10             	add    $0x10,%esp
}
   10e08:	90                   	nop
   10e09:	c9                   	leave
   10e0a:	c3                   	ret

00010e0b <do_handler_fpu_error>:
{
   10e0b:	55                   	push   %ebp
   10e0c:	89 e5                	mov    %esp,%ebp
   10e0e:	83 ec 08             	sub    $0x8,%esp
    do_default_handler(frame, "X87 FPU Floating Point Error.");
   10e11:	83 ec 08             	sub    $0x8,%esp
   10e14:	68 6e 20 01 00       	push   $0x1206e
   10e19:	ff 75 08             	push   0x8(%ebp)
   10e1c:	e8 08 fe ff ff       	call   10c29 <do_default_handler>
   10e21:	83 c4 10             	add    $0x10,%esp
}
   10e24:	90                   	nop
   10e25:	c9                   	leave
   10e26:	c3                   	ret

00010e27 <do_handler_alignment_check>:

void do_handler_alignment_check(exception_frame_t *frame)
{
   10e27:	55                   	push   %ebp
   10e28:	89 e5                	mov    %esp,%ebp
   10e2a:	83 ec 08             	sub    $0x8,%esp
    do_default_handler(frame, "Alignment Check.");
   10e2d:	83 ec 08             	sub    $0x8,%esp
   10e30:	68 8c 20 01 00       	push   $0x1208c
   10e35:	ff 75 08             	push   0x8(%ebp)
   10e38:	e8 ec fd ff ff       	call   10c29 <do_default_handler>
   10e3d:	83 c4 10             	add    $0x10,%esp
}
   10e40:	90                   	nop
   10e41:	c9                   	leave
   10e42:	c3                   	ret

00010e43 <do_handler_machine_check>:

void do_handler_machine_check(exception_frame_t *frame)
{
   10e43:	55                   	push   %ebp
   10e44:	89 e5                	mov    %esp,%ebp
   10e46:	83 ec 08             	sub    $0x8,%esp
    do_default_handler(frame, "Machine Check.");
   10e49:	83 ec 08             	sub    $0x8,%esp
   10e4c:	68 9d 20 01 00       	push   $0x1209d
   10e51:	ff 75 08             	push   0x8(%ebp)
   10e54:	e8 d0 fd ff ff       	call   10c29 <do_default_handler>
   10e59:	83 c4 10             	add    $0x10,%esp
}
   10e5c:	90                   	nop
   10e5d:	c9                   	leave
   10e5e:	c3                   	ret

00010e5f <do_handler_smd_exception>:

void do_handler_smd_exception(exception_frame_t *frame)
{
   10e5f:	55                   	push   %ebp
   10e60:	89 e5                	mov    %esp,%ebp
   10e62:	83 ec 08             	sub    $0x8,%esp
    do_default_handler(frame, "SIMD Floating Point Exception.");
   10e65:	83 ec 08             	sub    $0x8,%esp
   10e68:	68 ac 20 01 00       	push   $0x120ac
   10e6d:	ff 75 08             	push   0x8(%ebp)
   10e70:	e8 b4 fd ff ff       	call   10c29 <do_default_handler>
   10e75:	83 c4 10             	add    $0x10,%esp
}
   10e78:	90                   	nop
   10e79:	c9                   	leave
   10e7a:	c3                   	ret

00010e7b <do_handler_virtual_exception>:

void do_handler_virtual_exception(exception_frame_t *frame)
{
   10e7b:	55                   	push   %ebp
   10e7c:	89 e5                	mov    %esp,%ebp
   10e7e:	83 ec 08             	sub    $0x8,%esp
    do_default_handler(frame, "Virtualization Exception.");
   10e81:	83 ec 08             	sub    $0x8,%esp
   10e84:	68 cb 20 01 00       	push   $0x120cb
   10e89:	ff 75 08             	push   0x8(%ebp)
   10e8c:	e8 98 fd ff ff       	call   10c29 <do_default_handler>
   10e91:	83 c4 10             	add    $0x10,%esp
}
   10e94:	90                   	nop
   10e95:	c9                   	leave
   10e96:	c3                   	ret

00010e97 <init_pic>:

static void init_pic(void)
{
   10e97:	55                   	push   %ebp
   10e98:	89 e5                	mov    %esp,%ebp
    // 对的一块8259芯片的初始化
    outb(PIC0_ICW1, PIC_ICW1_ALWAYS_1 | PIC_ICW1_ICW4);
   10e9a:	6a 11                	push   $0x11
   10e9c:	6a 20                	push   $0x20
   10e9e:	e8 36 fc ff ff       	call   10ad9 <outb>
   10ea3:	83 c4 08             	add    $0x8,%esp
    outb(PIC0_ICW2, IRQ_PIC_START);
   10ea6:	6a 20                	push   $0x20
   10ea8:	6a 21                	push   $0x21
   10eaa:	e8 2a fc ff ff       	call   10ad9 <outb>
   10eaf:	83 c4 08             	add    $0x8,%esp
    outb(PIC0_ICW3, 1 << 2);
   10eb2:	6a 04                	push   $0x4
   10eb4:	6a 21                	push   $0x21
   10eb6:	e8 1e fc ff ff       	call   10ad9 <outb>
   10ebb:	83 c4 08             	add    $0x8,%esp
    outb(PIC0_ICW4, PIC_ICW4_8086);
   10ebe:	6a 01                	push   $0x1
   10ec0:	6a 21                	push   $0x21
   10ec2:	e8 12 fc ff ff       	call   10ad9 <outb>
   10ec7:	83 c4 08             	add    $0x8,%esp

    // 对的二块8259芯片的初始化
    outb(PIC1_ICW1, PIC_ICW1_ALWAYS_1 | PIC_ICW1_ICW4);
   10eca:	6a 11                	push   $0x11
   10ecc:	68 a0 00 00 00       	push   $0xa0
   10ed1:	e8 03 fc ff ff       	call   10ad9 <outb>
   10ed6:	83 c4 08             	add    $0x8,%esp
    outb(PIC1_ICW2, IRQ_PIC_START + 8);
   10ed9:	6a 28                	push   $0x28
   10edb:	68 a1 00 00 00       	push   $0xa1
   10ee0:	e8 f4 fb ff ff       	call   10ad9 <outb>
   10ee5:	83 c4 08             	add    $0x8,%esp
    outb(PIC1_ICW3, 2);
   10ee8:	6a 02                	push   $0x2
   10eea:	68 a1 00 00 00       	push   $0xa1
   10eef:	e8 e5 fb ff ff       	call   10ad9 <outb>
   10ef4:	83 c4 08             	add    $0x8,%esp
    outb(PIC1_ICW4, PIC_ICW4_8086);
   10ef7:	6a 01                	push   $0x1
   10ef9:	68 a1 00 00 00       	push   $0xa1
   10efe:	e8 d6 fb ff ff       	call   10ad9 <outb>
   10f03:	83 c4 08             	add    $0x8,%esp

    outb(PIC0_IMR, 0xFF & ~(1 << 2));
   10f06:	68 fb 00 00 00       	push   $0xfb
   10f0b:	6a 21                	push   $0x21
   10f0d:	e8 c7 fb ff ff       	call   10ad9 <outb>
   10f12:	83 c4 08             	add    $0x8,%esp
    outb(PIC1_IMR, 0xff);
   10f15:	68 ff 00 00 00       	push   $0xff
   10f1a:	68 a1 00 00 00       	push   $0xa1
   10f1f:	e8 b5 fb ff ff       	call   10ad9 <outb>
   10f24:	83 c4 08             	add    $0x8,%esp
}
   10f27:	90                   	nop
   10f28:	c9                   	leave
   10f29:	c3                   	ret

00010f2a <irq_init>:

// 初始化中断向量表
void irq_init(void)
{
   10f2a:	55                   	push   %ebp
   10f2b:	89 e5                	mov    %esp,%ebp
   10f2d:	83 ec 18             	sub    $0x18,%esp
    for (int i = 0; i < IDT_TABLE_NR; i++)
   10f30:	c7 45 f4 00 00 00 00 	movl   $0x0,-0xc(%ebp)
   10f37:	eb 25                	jmp    10f5e <irq_init+0x34>
    {
        gate_desc_set(idt_table + i, KERNEL_SELECTOR_CS, (uint32_t)exception_handler_unknow, GATE_P_PRESENT | GATE_DPL0 | GATE_TYPE_IDT);
   10f39:	ba 2b 00 01 00       	mov    $0x1002b,%edx
   10f3e:	8b 45 f4             	mov    -0xc(%ebp),%eax
   10f41:	c1 e0 03             	shl    $0x3,%eax
   10f44:	05 40 3b 01 00       	add    $0x13b40,%eax
   10f49:	68 00 8e 00 00       	push   $0x8e00
   10f4e:	52                   	push   %edx
   10f4f:	6a 08                	push   $0x8
   10f51:	50                   	push   %eax
   10f52:	e8 97 fa ff ff       	call   109ee <gate_desc_set>
   10f57:	83 c4 10             	add    $0x10,%esp
    for (int i = 0; i < IDT_TABLE_NR; i++)
   10f5a:	83 45 f4 01          	addl   $0x1,-0xc(%ebp)
   10f5e:	83 7d f4 7f          	cmpl   $0x7f,-0xc(%ebp)
   10f62:	7e d5                	jle    10f39 <irq_init+0xf>
    }

    // 将异常处理配置到idt表中
    // 除0异常
    irq_install(IRQ0_DE, (irq_handler_t)exception_handler_divider);
   10f64:	83 ec 08             	sub    $0x8,%esp
   10f67:	68 4a 00 01 00       	push   $0x1004a
   10f6c:	6a 00                	push   $0x0
   10f6e:	e8 65 01 00 00       	call   110d8 <irq_install>
   10f73:	83 c4 10             	add    $0x10,%esp
    irq_install(IRQ1_DB, (irq_handler_t)exception_handler_Debug);
   10f76:	83 ec 08             	sub    $0x8,%esp
   10f79:	68 69 00 01 00       	push   $0x10069
   10f7e:	6a 01                	push   $0x1
   10f80:	e8 53 01 00 00       	call   110d8 <irq_install>
   10f85:	83 c4 10             	add    $0x10,%esp
    irq_install(IRQ2_NMI, (irq_handler_t)exception_handler_NMI);
   10f88:	83 ec 08             	sub    $0x8,%esp
   10f8b:	68 88 00 01 00       	push   $0x10088
   10f90:	6a 02                	push   $0x2
   10f92:	e8 41 01 00 00       	call   110d8 <irq_install>
   10f97:	83 c4 10             	add    $0x10,%esp
    irq_install(IRQ3_BP, (irq_handler_t)exception_handler_breakpoint);
   10f9a:	83 ec 08             	sub    $0x8,%esp
   10f9d:	68 a7 00 01 00       	push   $0x100a7
   10fa2:	6a 03                	push   $0x3
   10fa4:	e8 2f 01 00 00       	call   110d8 <irq_install>
   10fa9:	83 c4 10             	add    $0x10,%esp
    irq_install(IRQ4_OF, (irq_handler_t)exception_handler_overflow);
   10fac:	83 ec 08             	sub    $0x8,%esp
   10faf:	68 c6 00 01 00       	push   $0x100c6
   10fb4:	6a 04                	push   $0x4
   10fb6:	e8 1d 01 00 00       	call   110d8 <irq_install>
   10fbb:	83 c4 10             	add    $0x10,%esp
    irq_install(IRQ5_BR, (irq_handler_t)exception_handler_bound_range);
   10fbe:	83 ec 08             	sub    $0x8,%esp
   10fc1:	68 e5 00 01 00       	push   $0x100e5
   10fc6:	6a 05                	push   $0x5
   10fc8:	e8 0b 01 00 00       	call   110d8 <irq_install>
   10fcd:	83 c4 10             	add    $0x10,%esp
    irq_install(IRQ6_UD, (irq_handler_t)exception_handler_invalid_opcode);
   10fd0:	83 ec 08             	sub    $0x8,%esp
   10fd3:	68 04 01 01 00       	push   $0x10104
   10fd8:	6a 06                	push   $0x6
   10fda:	e8 f9 00 00 00       	call   110d8 <irq_install>
   10fdf:	83 c4 10             	add    $0x10,%esp
    irq_install(IRQ7_NM, (irq_handler_t)exception_handler_device_unavailable);
   10fe2:	83 ec 08             	sub    $0x8,%esp
   10fe5:	68 23 01 01 00       	push   $0x10123
   10fea:	6a 07                	push   $0x7
   10fec:	e8 e7 00 00 00       	call   110d8 <irq_install>
   10ff1:	83 c4 10             	add    $0x10,%esp
    irq_install(IRQ8_DF, (irq_handler_t)exception_handler_double_fault);
   10ff4:	83 ec 08             	sub    $0x8,%esp
   10ff7:	68 42 01 01 00       	push   $0x10142
   10ffc:	6a 08                	push   $0x8
   10ffe:	e8 d5 00 00 00       	call   110d8 <irq_install>
   11003:	83 c4 10             	add    $0x10,%esp
    irq_install(IRQ10_TS, (irq_handler_t)exception_handler_invalid_tss);
   11006:	83 ec 08             	sub    $0x8,%esp
   11009:	68 5f 01 01 00       	push   $0x1015f
   1100e:	6a 0a                	push   $0xa
   11010:	e8 c3 00 00 00       	call   110d8 <irq_install>
   11015:	83 c4 10             	add    $0x10,%esp
    irq_install(IRQ11_NP, (irq_handler_t)exception_handler_segment_not_present);
   11018:	83 ec 08             	sub    $0x8,%esp
   1101b:	68 7c 01 01 00       	push   $0x1017c
   11020:	6a 0b                	push   $0xb
   11022:	e8 b1 00 00 00       	call   110d8 <irq_install>
   11027:	83 c4 10             	add    $0x10,%esp
    irq_install(IRQ12_SS, (irq_handler_t)exception_handler_stack_segment_fault);
   1102a:	83 ec 08             	sub    $0x8,%esp
   1102d:	68 99 01 01 00       	push   $0x10199
   11032:	6a 0c                	push   $0xc
   11034:	e8 9f 00 00 00       	call   110d8 <irq_install>
   11039:	83 c4 10             	add    $0x10,%esp
    irq_install(IRQ13_GP, (irq_handler_t)exception_handler_general_protection);
   1103c:	83 ec 08             	sub    $0x8,%esp
   1103f:	68 b6 01 01 00       	push   $0x101b6
   11044:	6a 0d                	push   $0xd
   11046:	e8 8d 00 00 00       	call   110d8 <irq_install>
   1104b:	83 c4 10             	add    $0x10,%esp
    irq_install(IRQ14_PF, (irq_handler_t)exception_handler_page_fault);
   1104e:	83 ec 08             	sub    $0x8,%esp
   11051:	68 d3 01 01 00       	push   $0x101d3
   11056:	6a 0e                	push   $0xe
   11058:	e8 7b 00 00 00       	call   110d8 <irq_install>
   1105d:	83 c4 10             	add    $0x10,%esp
    irq_install(IRQ16_MF, (irq_handler_t)exception_handler_fpu_error);
   11060:	83 ec 08             	sub    $0x8,%esp
   11063:	68 f0 01 01 00       	push   $0x101f0
   11068:	6a 10                	push   $0x10
   1106a:	e8 69 00 00 00       	call   110d8 <irq_install>
   1106f:	83 c4 10             	add    $0x10,%esp
    irq_install(IRQ17_AC, (irq_handler_t)exception_handler_alignment_check);
   11072:	83 ec 08             	sub    $0x8,%esp
   11075:	68 0f 02 01 00       	push   $0x1020f
   1107a:	6a 11                	push   $0x11
   1107c:	e8 57 00 00 00       	call   110d8 <irq_install>
   11081:	83 c4 10             	add    $0x10,%esp
    irq_install(IRQ18_MC, (irq_handler_t)exception_handler_machine_check);
   11084:	83 ec 08             	sub    $0x8,%esp
   11087:	68 2c 02 01 00       	push   $0x1022c
   1108c:	6a 12                	push   $0x12
   1108e:	e8 45 00 00 00       	call   110d8 <irq_install>
   11093:	83 c4 10             	add    $0x10,%esp
    irq_install(IRQ19_XM, (irq_handler_t)exception_handler_smd_exception);
   11096:	83 ec 08             	sub    $0x8,%esp
   11099:	68 4b 02 01 00       	push   $0x1024b
   1109e:	6a 13                	push   $0x13
   110a0:	e8 33 00 00 00       	call   110d8 <irq_install>
   110a5:	83 c4 10             	add    $0x10,%esp
    irq_install(IRQ20_VE, (irq_handler_t)exception_handler_virtual_exception);
   110a8:	83 ec 08             	sub    $0x8,%esp
   110ab:	68 6a 02 01 00       	push   $0x1026a
   110b0:	6a 14                	push   $0x14
   110b2:	e8 21 00 00 00       	call   110d8 <irq_install>
   110b7:	83 c4 10             	add    $0x10,%esp

    lidt((uint32_t)idt_table, sizeof(idt_table));
   110ba:	b8 40 3b 01 00       	mov    $0x13b40,%eax
   110bf:	83 ec 08             	sub    $0x8,%esp
   110c2:	68 00 04 00 00       	push   $0x400
   110c7:	50                   	push   %eax
   110c8:	e8 39 fa ff ff       	call   10b06 <lidt>
   110cd:	83 c4 10             	add    $0x10,%esp

    init_pic();
   110d0:	e8 c2 fd ff ff       	call   10e97 <init_pic>
}
   110d5:	90                   	nop
   110d6:	c9                   	leave
   110d7:	c3                   	ret

000110d8 <irq_install>:

int irq_install(int irq_num, irq_handler_t handler)
{
   110d8:	55                   	push   %ebp
   110d9:	89 e5                	mov    %esp,%ebp
   110db:	83 ec 08             	sub    $0x8,%esp
    if (irq_num >= IDT_TABLE_NR)
   110de:	83 7d 08 7f          	cmpl   $0x7f,0x8(%ebp)
   110e2:	7e 07                	jle    110eb <irq_install+0x13>
    {
        return -1;
   110e4:	b8 ff ff ff ff       	mov    $0xffffffff,%eax
   110e9:	eb 20                	jmp    1110b <irq_install+0x33>
    }

    gate_desc_set(idt_table + irq_num, KERNEL_SELECTOR_CS, (uint32_t)handler, GATE_P_PRESENT | GATE_DPL0 | GATE_TYPE_IDT);
   110eb:	8b 45 0c             	mov    0xc(%ebp),%eax
   110ee:	8b 55 08             	mov    0x8(%ebp),%edx
   110f1:	c1 e2 03             	shl    $0x3,%edx
   110f4:	81 c2 40 3b 01 00    	add    $0x13b40,%edx
   110fa:	68 00 8e 00 00       	push   $0x8e00
   110ff:	50                   	push   %eax
   11100:	6a 08                	push   $0x8
   11102:	52                   	push   %edx
   11103:	e8 e6 f8 ff ff       	call   109ee <gate_desc_set>
   11108:	83 c4 10             	add    $0x10,%esp
}
   1110b:	c9                   	leave
   1110c:	c3                   	ret

0001110d <irq_enable>:

// 8259中断打开
void irq_enable(int irq_num)
{
   1110d:	55                   	push   %ebp
   1110e:	89 e5                	mov    %esp,%ebp
   11110:	53                   	push   %ebx
   11111:	83 ec 10             	sub    $0x10,%esp
    if (irq_num < IRQ_PIC_START)
   11114:	83 7d 08 1f          	cmpl   $0x1f,0x8(%ebp)
   11118:	7e 78                	jle    11192 <irq_enable+0x85>
    {
        return;
    }
    irq_num -= IRQ_PIC_START;
   1111a:	83 6d 08 20          	subl   $0x20,0x8(%ebp)
    if (irq_num < 8)
   1111e:	83 7d 08 07          	cmpl   $0x7,0x8(%ebp)
   11122:	7f 32                	jg     11156 <irq_enable+0x49>
    {
        uint8_t mask = inb(PIC0_IMR) & ~(1 << irq_num);
   11124:	6a 21                	push   $0x21
   11126:	e8 91 f9 ff ff       	call   10abc <inb>
   1112b:	83 c4 04             	add    $0x4,%esp
   1112e:	89 c3                	mov    %eax,%ebx
   11130:	8b 45 08             	mov    0x8(%ebp),%eax
   11133:	ba 01 00 00 00       	mov    $0x1,%edx
   11138:	89 c1                	mov    %eax,%ecx
   1113a:	d3 e2                	shl    %cl,%edx
   1113c:	89 d0                	mov    %edx,%eax
   1113e:	f7 d0                	not    %eax
   11140:	21 d8                	and    %ebx,%eax
   11142:	88 45 fa             	mov    %al,-0x6(%ebp)
        outb(PIC0_IMR, mask);
   11145:	0f b6 45 fa          	movzbl -0x6(%ebp),%eax
   11149:	50                   	push   %eax
   1114a:	6a 21                	push   $0x21
   1114c:	e8 88 f9 ff ff       	call   10ad9 <outb>
   11151:	83 c4 08             	add    $0x8,%esp
   11154:	eb 3d                	jmp    11193 <irq_enable+0x86>
    }
    else
    {
        irq_num -= 8;
   11156:	83 6d 08 08          	subl   $0x8,0x8(%ebp)
        uint8_t mask = inb(PIC1_IMR) & ~(1 << irq_num);
   1115a:	68 a1 00 00 00       	push   $0xa1
   1115f:	e8 58 f9 ff ff       	call   10abc <inb>
   11164:	83 c4 04             	add    $0x4,%esp
   11167:	89 c3                	mov    %eax,%ebx
   11169:	8b 45 08             	mov    0x8(%ebp),%eax
   1116c:	ba 01 00 00 00       	mov    $0x1,%edx
   11171:	89 c1                	mov    %eax,%ecx
   11173:	d3 e2                	shl    %cl,%edx
   11175:	89 d0                	mov    %edx,%eax
   11177:	f7 d0                	not    %eax
   11179:	21 d8                	and    %ebx,%eax
   1117b:	88 45 fb             	mov    %al,-0x5(%ebp)
        outb(PIC1_IMR, mask);
   1117e:	0f b6 45 fb          	movzbl -0x5(%ebp),%eax
   11182:	50                   	push   %eax
   11183:	68 a1 00 00 00       	push   $0xa1
   11188:	e8 4c f9 ff ff       	call   10ad9 <outb>
   1118d:	83 c4 08             	add    $0x8,%esp
   11190:	eb 01                	jmp    11193 <irq_enable+0x86>
        return;
   11192:	90                   	nop
    }
}
   11193:	8b 5d fc             	mov    -0x4(%ebp),%ebx
   11196:	c9                   	leave
   11197:	c3                   	ret

00011198 <irq_disable>:

// 8259中断关闭
void irq_disable(int irq_num)
{
   11198:	55                   	push   %ebp
   11199:	89 e5                	mov    %esp,%ebp
   1119b:	53                   	push   %ebx
   1119c:	83 ec 10             	sub    $0x10,%esp
    if (irq_num < IRQ_PIC_START)
   1119f:	83 7d 08 1f          	cmpl   $0x1f,0x8(%ebp)
   111a3:	7e 74                	jle    11219 <irq_disable+0x81>
    {
        return;
    }
    irq_num -= IRQ_PIC_START;
   111a5:	83 6d 08 20          	subl   $0x20,0x8(%ebp)
    if (irq_num < 8)
   111a9:	83 7d 08 07          	cmpl   $0x7,0x8(%ebp)
   111ad:	7f 30                	jg     111df <irq_disable+0x47>
    {
        uint8_t mask = inb(PIC0_IMR) | (1 << irq_num);
   111af:	6a 21                	push   $0x21
   111b1:	e8 06 f9 ff ff       	call   10abc <inb>
   111b6:	83 c4 04             	add    $0x4,%esp
   111b9:	89 c3                	mov    %eax,%ebx
   111bb:	8b 45 08             	mov    0x8(%ebp),%eax
   111be:	ba 01 00 00 00       	mov    $0x1,%edx
   111c3:	89 c1                	mov    %eax,%ecx
   111c5:	d3 e2                	shl    %cl,%edx
   111c7:	89 d0                	mov    %edx,%eax
   111c9:	09 d8                	or     %ebx,%eax
   111cb:	88 45 fa             	mov    %al,-0x6(%ebp)
        outb(PIC0_IMR, mask);
   111ce:	0f b6 45 fa          	movzbl -0x6(%ebp),%eax
   111d2:	50                   	push   %eax
   111d3:	6a 21                	push   $0x21
   111d5:	e8 ff f8 ff ff       	call   10ad9 <outb>
   111da:	83 c4 08             	add    $0x8,%esp
   111dd:	eb 3b                	jmp    1121a <irq_disable+0x82>
    }
    else
    {
        irq_num -= 8;
   111df:	83 6d 08 08          	subl   $0x8,0x8(%ebp)
        uint8_t mask = inb(PIC1_IMR) | (1 << irq_num);
   111e3:	68 a1 00 00 00       	push   $0xa1
   111e8:	e8 cf f8 ff ff       	call   10abc <inb>
   111ed:	83 c4 04             	add    $0x4,%esp
   111f0:	89 c3                	mov    %eax,%ebx
   111f2:	8b 45 08             	mov    0x8(%ebp),%eax
   111f5:	ba 01 00 00 00       	mov    $0x1,%edx
   111fa:	89 c1                	mov    %eax,%ecx
   111fc:	d3 e2                	shl    %cl,%edx
   111fe:	89 d0                	mov    %edx,%eax
   11200:	09 d8                	or     %ebx,%eax
   11202:	88 45 fb             	mov    %al,-0x5(%ebp)
        outb(PIC1_IMR, mask);
   11205:	0f b6 45 fb          	movzbl -0x5(%ebp),%eax
   11209:	50                   	push   %eax
   1120a:	68 a1 00 00 00       	push   $0xa1
   1120f:	e8 c5 f8 ff ff       	call   10ad9 <outb>
   11214:	83 c4 08             	add    $0x8,%esp
   11217:	eb 01                	jmp    1121a <irq_disable+0x82>
        return;
   11219:	90                   	nop
    }
}
   1121a:	8b 5d fc             	mov    -0x4(%ebp),%ebx
   1121d:	c9                   	leave
   1121e:	c3                   	ret

0001121f <irq_disable_global>:

// 全局中断关闭
void irq_disable_global(void)
{
   1121f:	55                   	push   %ebp
   11220:	89 e5                	mov    %esp,%ebp
    cli();
   11222:	e8 d1 f8 ff ff       	call   10af8 <cli>
}
   11227:	90                   	nop
   11228:	5d                   	pop    %ebp
   11229:	c3                   	ret

0001122a <irq_enable_global>:

// 全局中断开启
void irq_enable_global(void)
{
   1122a:	55                   	push   %ebp
   1122b:	89 e5                	mov    %esp,%ebp
    sti();
   1122d:	e8 cd f8 ff ff       	call   10aff <sti>
}
   11232:	90                   	nop
   11233:	5d                   	pop    %ebp
   11234:	c3                   	ret

00011235 <pic_send_eoi>:

void pic_send_eoi(int irq_num)
{
   11235:	55                   	push   %ebp
   11236:	89 e5                	mov    %esp,%ebp
    irq_num -= IRQ_PIC_START;
   11238:	83 6d 08 20          	subl   $0x20,0x8(%ebp)
    if (irq_num >= 8)
   1123c:	83 7d 08 07          	cmpl   $0x7,0x8(%ebp)
   11240:	7e 0f                	jle    11251 <pic_send_eoi+0x1c>
    {
        outb(PIC1_OCW2, PIC_OCW2_EOI);
   11242:	6a 20                	push   $0x20
   11244:	68 a0 00 00 00       	push   $0xa0
   11249:	e8 8b f8 ff ff       	call   10ad9 <outb>
   1124e:	83 c4 08             	add    $0x8,%esp
    }

    outb(PIC0_OCW2, PIC_OCW2_EOI);
   11251:	6a 20                	push   $0x20
   11253:	6a 20                	push   $0x20
   11255:	e8 7f f8 ff ff       	call   10ad9 <outb>
   1125a:	83 c4 08             	add    $0x8,%esp
}
   1125d:	90                   	nop
   1125e:	c9                   	leave
   1125f:	c3                   	ret

00011260 <irq_enter_protection>:

// 进入临界区保护执行关中断
irq_state_t irq_enter_protection(void)
{
   11260:	55                   	push   %ebp
   11261:	89 e5                	mov    %esp,%ebp
   11263:	83 ec 10             	sub    $0x10,%esp
    irq_state_t state = read_eflags();
   11266:	e8 ca f8 ff ff       	call   10b35 <read_eflags>
   1126b:	89 45 fc             	mov    %eax,-0x4(%ebp)
    irq_disable_global();
   1126e:	e8 ac ff ff ff       	call   1121f <irq_disable_global>
    return state;
   11273:	8b 45 fc             	mov    -0x4(%ebp),%eax
}
   11276:	c9                   	leave
   11277:	c3                   	ret

00011278 <irq_leave_protection>:
// 退出临界区保护执行开中断
void irq_leave_protection(irq_state_t state)
{
   11278:	55                   	push   %ebp
   11279:	89 e5                	mov    %esp,%ebp
    write_eflags(state);
   1127b:	ff 75 08             	push   0x8(%ebp)
   1127e:	e8 c2 f8 ff ff       	call   10b45 <write_eflags>
   11283:	83 c4 04             	add    $0x4,%esp
   11286:	90                   	nop
   11287:	c9                   	leave
   11288:	c3                   	ret

00011289 <outb>:
}

void init_time(void)
{
    sys_tick = 0;
    init_pit();
   11289:	55                   	push   %ebp
   1128a:	89 e5                	mov    %esp,%ebp
   1128c:	83 ec 08             	sub    $0x8,%esp
   1128f:	8b 55 08             	mov    0x8(%ebp),%edx
   11292:	8b 45 0c             	mov    0xc(%ebp),%eax
   11295:	66 89 55 fc          	mov    %dx,-0x4(%ebp)
   11299:	88 45 f8             	mov    %al,-0x8(%ebp)
   1129c:	0f b7 55 fc          	movzwl -0x4(%ebp),%edx
   112a0:	0f b6 45 f8          	movzbl -0x8(%ebp),%eax
   112a4:	ee                   	out    %al,(%dx)
   112a5:	90                   	nop
   112a6:	c9                   	leave
   112a7:	c3                   	ret

000112a8 <do_handler_time>:
{
   112a8:	55                   	push   %ebp
   112a9:	89 e5                	mov    %esp,%ebp
   112ab:	83 ec 08             	sub    $0x8,%esp
    sys_tick++; // 每一次定时中断来了之后就自增1
   112ae:	a1 40 3f 01 00       	mov    0x13f40,%eax
   112b3:	83 c0 01             	add    $0x1,%eax
   112b6:	a3 40 3f 01 00       	mov    %eax,0x13f40
    pic_send_eoi(IRQ0_TIMER);
   112bb:	83 ec 0c             	sub    $0xc,%esp
   112be:	6a 20                	push   $0x20
   112c0:	e8 70 ff ff ff       	call   11235 <pic_send_eoi>
   112c5:	83 c4 10             	add    $0x10,%esp
    task_time_tick();
   112c8:	e8 65 f4 ff ff       	call   10732 <task_time_tick>
}
   112cd:	90                   	nop
   112ce:	c9                   	leave
   112cf:	c3                   	ret

000112d0 <init_pit>:
{
   112d0:	55                   	push   %ebp
   112d1:	89 e5                	mov    %esp,%ebp
   112d3:	83 ec 18             	sub    $0x18,%esp
    uint32_t reload_count = PIT_OSC_FREQ * OS_TICKS_MS / 1000;
   112d6:	c7 45 f4 9b 2e 00 00 	movl   $0x2e9b,-0xc(%ebp)
    outb(PIT_COMMAND_MODE_PORT, PIT_CHANNEL | PIT_LOAD_LOHI | PIT_MODE3);
   112dd:	6a 36                	push   $0x36
   112df:	6a 43                	push   $0x43
   112e1:	e8 a3 ff ff ff       	call   11289 <outb>
   112e6:	83 c4 08             	add    $0x8,%esp
    outb(PIT_CHANNEL0_DATA_PORT, reload_count & 0xFF);
   112e9:	8b 45 f4             	mov    -0xc(%ebp),%eax
   112ec:	0f b6 c0             	movzbl %al,%eax
   112ef:	50                   	push   %eax
   112f0:	6a 40                	push   $0x40
   112f2:	e8 92 ff ff ff       	call   11289 <outb>
   112f7:	83 c4 08             	add    $0x8,%esp
    outb(PIT_CHANNEL0_DATA_PORT, (reload_count >> 8) & 0xFF);
   112fa:	8b 45 f4             	mov    -0xc(%ebp),%eax
   112fd:	c1 e8 08             	shr    $0x8,%eax
   11300:	0f b6 c0             	movzbl %al,%eax
   11303:	50                   	push   %eax
   11304:	6a 40                	push   $0x40
   11306:	e8 7e ff ff ff       	call   11289 <outb>
   1130b:	83 c4 08             	add    $0x8,%esp
    irq_install(IRQ0_TIMER, (irq_handler_t)exception_handler_time); // 添加到中断函数中
   1130e:	83 ec 08             	sub    $0x8,%esp
   11311:	68 89 02 01 00       	push   $0x10289
   11316:	6a 20                	push   $0x20
   11318:	e8 bb fd ff ff       	call   110d8 <irq_install>
   1131d:	83 c4 10             	add    $0x10,%esp
    irq_enable(IRQ0_TIMER);                                         // 打开定时中断
   11320:	83 ec 0c             	sub    $0xc,%esp
   11323:	6a 20                	push   $0x20
   11325:	e8 e3 fd ff ff       	call   1110d <irq_enable>
   1132a:	83 c4 10             	add    $0x10,%esp
}
   1132d:	90                   	nop
   1132e:	c9                   	leave
   1132f:	c3                   	ret

00011330 <init_time>:
{
   11330:	55                   	push   %ebp
   11331:	89 e5                	mov    %esp,%ebp
   11333:	83 ec 08             	sub    $0x8,%esp
    sys_tick = 0;
   11336:	c7 05 40 3f 01 00 00 	movl   $0x0,0x13f40
   1133d:	00 00 00 
    init_pit();
   11340:	e8 8b ff ff ff       	call   112d0 <init_pit>
   11345:	90                   	nop
   11346:	c9                   	leave
   11347:	c3                   	ret

00011348 <kernel_init>:

/**
 * 内核入口
 */
void kernel_init(boot_info_t *boot_info)
{
   11348:	55                   	push   %ebp
   11349:	89 e5                	mov    %esp,%ebp
   1134b:	83 ec 08             	sub    $0x8,%esp
    cpu_init();
   1134e:	e8 5e f7 ff ff       	call   10ab1 <cpu_init>

    init_log(); // 初始化打印函数
   11353:	e8 61 09 00 00       	call   11cb9 <init_log>
    irq_init();
   11358:	e8 cd fb ff ff       	call   10f2a <irq_init>
    // 初始化定时器
    init_time();
   1135d:	e8 ce ff ff ff       	call   11330 <init_time>

    // 初始化任务管理
    task_manager_init();
   11362:	e8 cf f1 ff ff       	call   10536 <task_manager_init>
}
   11367:	90                   	nop
   11368:	c9                   	leave
   11369:	c3                   	ret

0001136a <init_task_entry>:

static uint32_t init_task_stack[1024];
static task_t init_task;
static sem_t sem;
void init_task_entry(void)
{
   1136a:	55                   	push   %ebp
   1136b:	89 e5                	mov    %esp,%ebp
   1136d:	83 ec 18             	sub    $0x18,%esp
    int count = 0;
   11370:	c7 45 f4 00 00 00 00 	movl   $0x0,-0xc(%ebp)
    for (;;)
    {
        sem_wait(&sem);
   11377:	83 ec 0c             	sub    $0xc,%esp
   1137a:	68 14 50 01 00       	push   $0x15014
   1137f:	e8 0d 01 00 00       	call   11491 <sem_wait>
   11384:	83 c4 10             	add    $0x10,%esp
        log_prinf("init task: %d", count++);
   11387:	8b 45 f4             	mov    -0xc(%ebp),%eax
   1138a:	8d 50 01             	lea    0x1(%eax),%edx
   1138d:	89 55 f4             	mov    %edx,-0xc(%ebp)
   11390:	83 ec 08             	sub    $0x8,%esp
   11393:	50                   	push   %eax
   11394:	68 e5 20 01 00       	push   $0x120e5
   11399:	e8 8d 09 00 00       	call   11d2b <log_prinf>
   1139e:	83 c4 10             	add    $0x10,%esp
        sem_wait(&sem);
   113a1:	eb d4                	jmp    11377 <init_task_entry+0xd>

000113a3 <init_main>:
    }
}

void init_main(void)
{
   113a3:	55                   	push   %ebp
   113a4:	89 e5                	mov    %esp,%ebp
   113a6:	83 ec 18             	sub    $0x18,%esp
    log_prinf("os is running");
   113a9:	83 ec 0c             	sub    $0xc,%esp
   113ac:	68 f3 20 01 00       	push   $0x120f3
   113b1:	e8 75 09 00 00       	call   11d2b <log_prinf>
   113b6:	83 c4 10             	add    $0x10,%esp
    log_prinf("version %s", OS_VERSION);
   113b9:	83 ec 08             	sub    $0x8,%esp
   113bc:	68 01 21 01 00       	push   $0x12101
   113c1:	68 07 21 01 00       	push   $0x12107
   113c6:	e8 60 09 00 00       	call   11d2b <log_prinf>
   113cb:	83 c4 10             	add    $0x10,%esp
    log_prinf("%d %d %x %c", -10, 20, 0x30, 'c');
   113ce:	83 ec 0c             	sub    $0xc,%esp
   113d1:	6a 63                	push   $0x63
   113d3:	6a 30                	push   $0x30
   113d5:	6a 14                	push   $0x14
   113d7:	6a f6                	push   $0xfffffff6
   113d9:	68 12 21 01 00       	push   $0x12112
   113de:	e8 48 09 00 00       	call   11d2b <log_prinf>
   113e3:	83 c4 20             	add    $0x20,%esp

    task_init(&init_task, "init task", (uint32_t)init_task_entry, (uint32_t)&init_task_stack[1024]);
   113e6:	ba 60 4f 01 00       	mov    $0x14f60,%edx
   113eb:	b8 6a 13 01 00       	mov    $0x1136a,%eax
   113f0:	52                   	push   %edx
   113f1:	50                   	push   %eax
   113f2:	68 1e 21 01 00       	push   $0x1211e
   113f7:	68 60 4f 01 00       	push   $0x14f60
   113fc:	e8 1c f0 ff ff       	call   1041d <task_init>
   11401:	83 c4 10             	add    $0x10,%esp
    task_first_init();
   11404:	e8 90 f1 ff ff       	call   10599 <task_first_init>

    sem_init(&sem, 0);
   11409:	83 ec 08             	sub    $0x8,%esp
   1140c:	6a 00                	push   $0x0
   1140e:	68 14 50 01 00       	push   $0x15014
   11413:	e8 56 00 00 00       	call   1146e <sem_init>
   11418:	83 c4 10             	add    $0x10,%esp
    irq_enable_global();
   1141b:	e8 0a fe ff ff       	call   1122a <irq_enable_global>
    int count = 0;
   11420:	c7 45 f4 00 00 00 00 	movl   $0x0,-0xc(%ebp)
    for (;;)
    {
        log_prinf("init_main: %d", count++);
   11427:	8b 45 f4             	mov    -0xc(%ebp),%eax
   1142a:	8d 50 01             	lea    0x1(%eax),%edx
   1142d:	89 55 f4             	mov    %edx,-0xc(%ebp)
   11430:	83 ec 08             	sub    $0x8,%esp
   11433:	50                   	push   %eax
   11434:	68 28 21 01 00       	push   $0x12128
   11439:	e8 ed 08 00 00       	call   11d2b <log_prinf>
   1143e:	83 c4 10             	add    $0x10,%esp
        sem_notify(&sem);
   11441:	83 ec 0c             	sub    $0xc,%esp
   11444:	68 14 50 01 00       	push   $0x15014
   11449:	e8 ae 00 00 00       	call   114fc <sem_notify>
   1144e:	83 c4 10             	add    $0x10,%esp
        sys_sleep(1000);
   11451:	83 ec 0c             	sub    $0xc,%esp
   11454:	68 e8 03 00 00       	push   $0x3e8
   11459:	e8 07 f4 ff ff       	call   10865 <sys_sleep>
   1145e:	83 c4 10             	add    $0x10,%esp
        log_prinf("init_main: %d", count++);
   11461:	eb c4                	jmp    11427 <init_main+0x84>

00011463 <list_count>:
   11463:	55                   	push   %ebp
   11464:	89 e5                	mov    %esp,%ebp
   11466:	8b 45 08             	mov    0x8(%ebp),%eax
   11469:	8b 40 08             	mov    0x8(%eax),%eax
   1146c:	5d                   	pop    %ebp
   1146d:	c3                   	ret

0001146e <sem_init>:
{
   1146e:	55                   	push   %ebp
   1146f:	89 e5                	mov    %esp,%ebp
   11471:	83 ec 08             	sub    $0x8,%esp
    sem->count = init_count;
   11474:	8b 45 08             	mov    0x8(%ebp),%eax
   11477:	8b 55 0c             	mov    0xc(%ebp),%edx
   1147a:	89 10                	mov    %edx,(%eax)
    list_init(&sem->wait_list);
   1147c:	8b 45 08             	mov    0x8(%ebp),%eax
   1147f:	83 c0 04             	add    $0x4,%eax
   11482:	83 ec 0c             	sub    $0xc,%esp
   11485:	50                   	push   %eax
   11486:	e8 0d 06 00 00       	call   11a98 <list_init>
   1148b:	83 c4 10             	add    $0x10,%esp
}
   1148e:	90                   	nop
   1148f:	c9                   	leave
   11490:	c3                   	ret

00011491 <sem_wait>:
{
   11491:	55                   	push   %ebp
   11492:	89 e5                	mov    %esp,%ebp
   11494:	83 ec 18             	sub    $0x18,%esp
    irq_state_t state = irq_enter_protection();
   11497:	e8 c4 fd ff ff       	call   11260 <irq_enter_protection>
   1149c:	89 45 f4             	mov    %eax,-0xc(%ebp)
    if (sem->count > 0)
   1149f:	8b 45 08             	mov    0x8(%ebp),%eax
   114a2:	8b 00                	mov    (%eax),%eax
   114a4:	85 c0                	test   %eax,%eax
   114a6:	7e 0f                	jle    114b7 <sem_wait+0x26>
        sem->count--;
   114a8:	8b 45 08             	mov    0x8(%ebp),%eax
   114ab:	8b 00                	mov    (%eax),%eax
   114ad:	8d 50 ff             	lea    -0x1(%eax),%edx
   114b0:	8b 45 08             	mov    0x8(%ebp),%eax
   114b3:	89 10                	mov    %edx,(%eax)
   114b5:	eb 34                	jmp    114eb <sem_wait+0x5a>
        task_t *curr = task_current();
   114b7:	e8 83 f1 ff ff       	call   1063f <task_current>
   114bc:	89 45 f0             	mov    %eax,-0x10(%ebp)
        task_set_block(curr);
   114bf:	83 ec 0c             	sub    $0xc,%esp
   114c2:	ff 75 f0             	push   -0x10(%ebp)
   114c5:	e8 4a f1 ff ff       	call   10614 <task_set_block>
   114ca:	83 c4 10             	add    $0x10,%esp
        list_insert_last(&sem->wait_list, &curr->wait_node);
   114cd:	8b 45 f0             	mov    -0x10(%ebp),%eax
   114d0:	8d 50 38             	lea    0x38(%eax),%edx
   114d3:	8b 45 08             	mov    0x8(%ebp),%eax
   114d6:	83 c0 04             	add    $0x4,%eax
   114d9:	83 ec 08             	sub    $0x8,%esp
   114dc:	52                   	push   %edx
   114dd:	50                   	push   %eax
   114de:	e8 39 06 00 00       	call   11b1c <list_insert_last>
   114e3:	83 c4 10             	add    $0x10,%esp
        task_dispatch();
   114e6:	e8 02 f2 ff ff       	call   106ed <task_dispatch>
    irq_leave_protection(state);
   114eb:	83 ec 0c             	sub    $0xc,%esp
   114ee:	ff 75 f4             	push   -0xc(%ebp)
   114f1:	e8 82 fd ff ff       	call   11278 <irq_leave_protection>
   114f6:	83 c4 10             	add    $0x10,%esp
}
   114f9:	90                   	nop
   114fa:	c9                   	leave
   114fb:	c3                   	ret

000114fc <sem_notify>:
{
   114fc:	55                   	push   %ebp
   114fd:	89 e5                	mov    %esp,%ebp
   114ff:	83 ec 18             	sub    $0x18,%esp
    irq_state_t state = irq_enter_protection();
   11502:	e8 59 fd ff ff       	call   11260 <irq_enter_protection>
   11507:	89 45 f4             	mov    %eax,-0xc(%ebp)
    if (list_count(&sem->wait_list))
   1150a:	8b 45 08             	mov    0x8(%ebp),%eax
   1150d:	83 c0 04             	add    $0x4,%eax
   11510:	83 ec 0c             	sub    $0xc,%esp
   11513:	50                   	push   %eax
   11514:	e8 4a ff ff ff       	call   11463 <list_count>
   11519:	83 c4 10             	add    $0x10,%esp
   1151c:	85 c0                	test   %eax,%eax
   1151e:	74 40                	je     11560 <sem_notify+0x64>
        list_node_t *node = list_remove_first(&sem->wait_list);
   11520:	8b 45 08             	mov    0x8(%ebp),%eax
   11523:	83 c0 04             	add    $0x4,%eax
   11526:	83 ec 0c             	sub    $0xc,%esp
   11529:	50                   	push   %eax
   1152a:	e8 51 06 00 00       	call   11b80 <list_remove_first>
   1152f:	83 c4 10             	add    $0x10,%esp
   11532:	89 45 f0             	mov    %eax,-0x10(%ebp)
        task_t *task = list_node_parent(node, task_t, wait_node);
   11535:	83 7d f0 00          	cmpl   $0x0,-0x10(%ebp)
   11539:	74 08                	je     11543 <sem_notify+0x47>
   1153b:	8b 45 f0             	mov    -0x10(%ebp),%eax
   1153e:	83 e8 38             	sub    $0x38,%eax
   11541:	eb 05                	jmp    11548 <sem_notify+0x4c>
   11543:	b8 00 00 00 00       	mov    $0x0,%eax
   11548:	89 45 ec             	mov    %eax,-0x14(%ebp)
        task_set_ready(task);
   1154b:	83 ec 0c             	sub    $0xc,%esp
   1154e:	ff 75 ec             	push   -0x14(%ebp)
   11551:	e8 8a f0 ff ff       	call   105e0 <task_set_ready>
   11556:	83 c4 10             	add    $0x10,%esp
        task_dispatch();
   11559:	e8 8f f1 ff ff       	call   106ed <task_dispatch>
   1155e:	eb 0d                	jmp    1156d <sem_notify+0x71>
        sem->count++;
   11560:	8b 45 08             	mov    0x8(%ebp),%eax
   11563:	8b 00                	mov    (%eax),%eax
   11565:	8d 50 01             	lea    0x1(%eax),%edx
   11568:	8b 45 08             	mov    0x8(%ebp),%eax
   1156b:	89 10                	mov    %edx,(%eax)
    irq_leave_protection(state);
   1156d:	83 ec 0c             	sub    $0xc,%esp
   11570:	ff 75 f4             	push   -0xc(%ebp)
   11573:	e8 00 fd ff ff       	call   11278 <irq_leave_protection>
   11578:	83 c4 10             	add    $0x10,%esp
}
   1157b:	90                   	nop
   1157c:	c9                   	leave
   1157d:	c3                   	ret

0001157e <sem_count>:
{
   1157e:	55                   	push   %ebp
   1157f:	89 e5                	mov    %esp,%ebp
   11581:	83 ec 18             	sub    $0x18,%esp
    irq_state_t state = irq_enter_protection();
   11584:	e8 d7 fc ff ff       	call   11260 <irq_enter_protection>
   11589:	89 45 f4             	mov    %eax,-0xc(%ebp)
    int count = sem->count;
   1158c:	8b 45 08             	mov    0x8(%ebp),%eax
   1158f:	8b 00                	mov    (%eax),%eax
   11591:	89 45 f0             	mov    %eax,-0x10(%ebp)
    irq_leave_protection(state);
   11594:	83 ec 0c             	sub    $0xc,%esp
   11597:	ff 75 f4             	push   -0xc(%ebp)
   1159a:	e8 d9 fc ff ff       	call   11278 <irq_leave_protection>
   1159f:	83 c4 10             	add    $0x10,%esp
    return count;
   115a2:	8b 45 f0             	mov    -0x10(%ebp),%eax
   115a5:	c9                   	leave
   115a6:	c3                   	ret

000115a7 <hlt>:
    }
    uint8_t *d = (uint8_t *)dest;
    while (size--)
    {
        *d++ = v;
    }
   115a7:	55                   	push   %ebp
   115a8:	89 e5                	mov    %esp,%ebp
}
   115aa:	f4                   	hlt

   115ab:	90                   	nop
   115ac:	5d                   	pop    %ebp
   115ad:	c3                   	ret

000115ae <kernel_strcpy>:
{
   115ae:	55                   	push   %ebp
   115af:	89 e5                	mov    %esp,%ebp
    if (!dest || !src)
   115b1:	83 7d 08 00          	cmpl   $0x0,0x8(%ebp)
   115b5:	74 3b                	je     115f2 <kernel_strcpy+0x44>
   115b7:	83 7d 0c 00          	cmpl   $0x0,0xc(%ebp)
   115bb:	74 35                	je     115f2 <kernel_strcpy+0x44>
    while (*dest && *src)
   115bd:	eb 17                	jmp    115d6 <kernel_strcpy+0x28>
        *dest++ = *src++;
   115bf:	8b 55 0c             	mov    0xc(%ebp),%edx
   115c2:	8d 42 01             	lea    0x1(%edx),%eax
   115c5:	89 45 0c             	mov    %eax,0xc(%ebp)
   115c8:	8b 45 08             	mov    0x8(%ebp),%eax
   115cb:	8d 48 01             	lea    0x1(%eax),%ecx
   115ce:	89 4d 08             	mov    %ecx,0x8(%ebp)
   115d1:	0f b6 12             	movzbl (%edx),%edx
   115d4:	88 10                	mov    %dl,(%eax)
    while (*dest && *src)
   115d6:	8b 45 08             	mov    0x8(%ebp),%eax
   115d9:	0f b6 00             	movzbl (%eax),%eax
   115dc:	84 c0                	test   %al,%al
   115de:	74 0a                	je     115ea <kernel_strcpy+0x3c>
   115e0:	8b 45 0c             	mov    0xc(%ebp),%eax
   115e3:	0f b6 00             	movzbl (%eax),%eax
   115e6:	84 c0                	test   %al,%al
   115e8:	75 d5                	jne    115bf <kernel_strcpy+0x11>
    *dest = '\0';
   115ea:	8b 45 08             	mov    0x8(%ebp),%eax
   115ed:	c6 00 00             	movb   $0x0,(%eax)
   115f0:	eb 01                	jmp    115f3 <kernel_strcpy+0x45>
        return;
   115f2:	90                   	nop
}
   115f3:	5d                   	pop    %ebp
   115f4:	c3                   	ret

000115f5 <kernel_strncpy>:
{
   115f5:	55                   	push   %ebp
   115f6:	89 e5                	mov    %esp,%ebp
   115f8:	83 ec 10             	sub    $0x10,%esp
    if (!dest || !src || !size)
   115fb:	83 7d 08 00          	cmpl   $0x0,0x8(%ebp)
   115ff:	74 61                	je     11662 <kernel_strncpy+0x6d>
   11601:	83 7d 0c 00          	cmpl   $0x0,0xc(%ebp)
   11605:	74 5b                	je     11662 <kernel_strncpy+0x6d>
   11607:	83 7d 10 00          	cmpl   $0x0,0x10(%ebp)
   1160b:	74 55                	je     11662 <kernel_strncpy+0x6d>
    char *d = dest;
   1160d:	8b 45 08             	mov    0x8(%ebp),%eax
   11610:	89 45 fc             	mov    %eax,-0x4(%ebp)
    const char *s = src;
   11613:	8b 45 0c             	mov    0xc(%ebp),%eax
   11616:	89 45 f8             	mov    %eax,-0x8(%ebp)
    while ((size-- > 0) && (*s))
   11619:	eb 17                	jmp    11632 <kernel_strncpy+0x3d>
        *d++ = *s++;
   1161b:	8b 55 f8             	mov    -0x8(%ebp),%edx
   1161e:	8d 42 01             	lea    0x1(%edx),%eax
   11621:	89 45 f8             	mov    %eax,-0x8(%ebp)
   11624:	8b 45 fc             	mov    -0x4(%ebp),%eax
   11627:	8d 48 01             	lea    0x1(%eax),%ecx
   1162a:	89 4d fc             	mov    %ecx,-0x4(%ebp)
   1162d:	0f b6 12             	movzbl (%edx),%edx
   11630:	88 10                	mov    %dl,(%eax)
    while ((size-- > 0) && (*s))
   11632:	8b 45 10             	mov    0x10(%ebp),%eax
   11635:	8d 50 ff             	lea    -0x1(%eax),%edx
   11638:	89 55 10             	mov    %edx,0x10(%ebp)
   1163b:	85 c0                	test   %eax,%eax
   1163d:	7e 0a                	jle    11649 <kernel_strncpy+0x54>
   1163f:	8b 45 f8             	mov    -0x8(%ebp),%eax
   11642:	0f b6 00             	movzbl (%eax),%eax
   11645:	84 c0                	test   %al,%al
   11647:	75 d2                	jne    1161b <kernel_strncpy+0x26>
    if (size == 0)
   11649:	83 7d 10 00          	cmpl   $0x0,0x10(%ebp)
   1164d:	75 0b                	jne    1165a <kernel_strncpy+0x65>
        *(d - 1) = '\0';
   1164f:	8b 45 fc             	mov    -0x4(%ebp),%eax
   11652:	83 e8 01             	sub    $0x1,%eax
   11655:	c6 00 00             	movb   $0x0,(%eax)
   11658:	eb 09                	jmp    11663 <kernel_strncpy+0x6e>
        *d = '\0';
   1165a:	8b 45 fc             	mov    -0x4(%ebp),%eax
   1165d:	c6 00 00             	movb   $0x0,(%eax)
   11660:	eb 01                	jmp    11663 <kernel_strncpy+0x6e>
        return;
   11662:	90                   	nop
}
   11663:	c9                   	leave
   11664:	c3                   	ret

00011665 <kernel_strncmp>:
{
   11665:	55                   	push   %ebp
   11666:	89 e5                	mov    %esp,%ebp
    if (!s1 || !s2 || !size)
   11668:	83 7d 08 00          	cmpl   $0x0,0x8(%ebp)
   1166c:	74 0c                	je     1167a <kernel_strncmp+0x15>
   1166e:	83 7d 0c 00          	cmpl   $0x0,0xc(%ebp)
   11672:	74 06                	je     1167a <kernel_strncmp+0x15>
   11674:	83 7d 10 00          	cmpl   $0x0,0x10(%ebp)
   11678:	75 0f                	jne    11689 <kernel_strncmp+0x24>
        return -1;
   1167a:	b8 ff ff ff ff       	mov    $0xffffffff,%eax
   1167f:	eb 62                	jmp    116e3 <kernel_strncmp+0x7e>
        s1++;
   11681:	83 45 08 01          	addl   $0x1,0x8(%ebp)
        s2++;
   11685:	83 45 0c 01          	addl   $0x1,0xc(%ebp)
    while (*s1 && *s2 && (*s1 == *s2) && size)
   11689:	8b 45 08             	mov    0x8(%ebp),%eax
   1168c:	0f b6 00             	movzbl (%eax),%eax
   1168f:	84 c0                	test   %al,%al
   11691:	74 20                	je     116b3 <kernel_strncmp+0x4e>
   11693:	8b 45 0c             	mov    0xc(%ebp),%eax
   11696:	0f b6 00             	movzbl (%eax),%eax
   11699:	84 c0                	test   %al,%al
   1169b:	74 16                	je     116b3 <kernel_strncmp+0x4e>
   1169d:	8b 45 08             	mov    0x8(%ebp),%eax
   116a0:	0f b6 10             	movzbl (%eax),%edx
   116a3:	8b 45 0c             	mov    0xc(%ebp),%eax
   116a6:	0f b6 00             	movzbl (%eax),%eax
   116a9:	38 c2                	cmp    %al,%dl
   116ab:	75 06                	jne    116b3 <kernel_strncmp+0x4e>
   116ad:	83 7d 10 00          	cmpl   $0x0,0x10(%ebp)
   116b1:	75 ce                	jne    11681 <kernel_strncmp+0x1c>
    return !((*s1 == '\0') || (*s2 == '\0') || (*s1 == *s2));
   116b3:	8b 45 08             	mov    0x8(%ebp),%eax
   116b6:	0f b6 00             	movzbl (%eax),%eax
   116b9:	84 c0                	test   %al,%al
   116bb:	74 21                	je     116de <kernel_strncmp+0x79>
   116bd:	8b 45 0c             	mov    0xc(%ebp),%eax
   116c0:	0f b6 00             	movzbl (%eax),%eax
   116c3:	84 c0                	test   %al,%al
   116c5:	74 17                	je     116de <kernel_strncmp+0x79>
   116c7:	8b 45 08             	mov    0x8(%ebp),%eax
   116ca:	0f b6 10             	movzbl (%eax),%edx
   116cd:	8b 45 0c             	mov    0xc(%ebp),%eax
   116d0:	0f b6 00             	movzbl (%eax),%eax
   116d3:	38 c2                	cmp    %al,%dl
   116d5:	74 07                	je     116de <kernel_strncmp+0x79>
   116d7:	b8 01 00 00 00       	mov    $0x1,%eax
   116dc:	eb 05                	jmp    116e3 <kernel_strncmp+0x7e>
   116de:	b8 00 00 00 00       	mov    $0x0,%eax
}
   116e3:	5d                   	pop    %ebp
   116e4:	c3                   	ret

000116e5 <kernel_strlen>:
{
   116e5:	55                   	push   %ebp
   116e6:	89 e5                	mov    %esp,%ebp
   116e8:	83 ec 10             	sub    $0x10,%esp
    if (!str)
   116eb:	83 7d 08 00          	cmpl   $0x0,0x8(%ebp)
   116ef:	75 07                	jne    116f8 <kernel_strlen+0x13>
        return 0;
   116f1:	b8 00 00 00 00       	mov    $0x0,%eax
   116f6:	eb 26                	jmp    1171e <kernel_strlen+0x39>
    const char *c = str;
   116f8:	8b 45 08             	mov    0x8(%ebp),%eax
   116fb:	89 45 fc             	mov    %eax,-0x4(%ebp)
    int len = 0;
   116fe:	c7 45 f8 00 00 00 00 	movl   $0x0,-0x8(%ebp)
    while (*c++)
   11705:	eb 04                	jmp    1170b <kernel_strlen+0x26>
        len++;
   11707:	83 45 f8 01          	addl   $0x1,-0x8(%ebp)
    while (*c++)
   1170b:	8b 45 fc             	mov    -0x4(%ebp),%eax
   1170e:	8d 50 01             	lea    0x1(%eax),%edx
   11711:	89 55 fc             	mov    %edx,-0x4(%ebp)
   11714:	0f b6 00             	movzbl (%eax),%eax
   11717:	84 c0                	test   %al,%al
   11719:	75 ec                	jne    11707 <kernel_strlen+0x22>
    return len;
   1171b:	8b 45 f8             	mov    -0x8(%ebp),%eax
}
   1171e:	c9                   	leave
   1171f:	c3                   	ret

00011720 <kernel_memcpy>:
{
   11720:	55                   	push   %ebp
   11721:	89 e5                	mov    %esp,%ebp
   11723:	83 ec 10             	sub    $0x10,%esp
    if (!dest || !src || !size)
   11726:	83 7d 08 00          	cmpl   $0x0,0x8(%ebp)
   1172a:	74 40                	je     1176c <kernel_memcpy+0x4c>
   1172c:	83 7d 0c 00          	cmpl   $0x0,0xc(%ebp)
   11730:	74 3a                	je     1176c <kernel_memcpy+0x4c>
   11732:	83 7d 10 00          	cmpl   $0x0,0x10(%ebp)
   11736:	74 34                	je     1176c <kernel_memcpy+0x4c>
    uint8_t *s = (uint8_t *)src;
   11738:	8b 45 0c             	mov    0xc(%ebp),%eax
   1173b:	89 45 fc             	mov    %eax,-0x4(%ebp)
    uint8_t *d = (uint8_t *)dest;
   1173e:	8b 45 08             	mov    0x8(%ebp),%eax
   11741:	89 45 f8             	mov    %eax,-0x8(%ebp)
    while (size--)
   11744:	eb 17                	jmp    1175d <kernel_memcpy+0x3d>
        *d++ = *s++;
   11746:	8b 55 fc             	mov    -0x4(%ebp),%edx
   11749:	8d 42 01             	lea    0x1(%edx),%eax
   1174c:	89 45 fc             	mov    %eax,-0x4(%ebp)
   1174f:	8b 45 f8             	mov    -0x8(%ebp),%eax
   11752:	8d 48 01             	lea    0x1(%eax),%ecx
   11755:	89 4d f8             	mov    %ecx,-0x8(%ebp)
   11758:	0f b6 12             	movzbl (%edx),%edx
   1175b:	88 10                	mov    %dl,(%eax)
    while (size--)
   1175d:	8b 45 10             	mov    0x10(%ebp),%eax
   11760:	8d 50 ff             	lea    -0x1(%eax),%edx
   11763:	89 55 10             	mov    %edx,0x10(%ebp)
   11766:	85 c0                	test   %eax,%eax
   11768:	75 dc                	jne    11746 <kernel_memcpy+0x26>
   1176a:	eb 01                	jmp    1176d <kernel_memcpy+0x4d>
        return;
   1176c:	90                   	nop
}
   1176d:	c9                   	leave
   1176e:	c3                   	ret

0001176f <kernel_memset>:
{
   1176f:	55                   	push   %ebp
   11770:	89 e5                	mov    %esp,%ebp
   11772:	83 ec 14             	sub    $0x14,%esp
   11775:	8b 45 0c             	mov    0xc(%ebp),%eax
   11778:	88 45 ec             	mov    %al,-0x14(%ebp)
    if (!dest || !size)
   1177b:	83 7d 08 00          	cmpl   $0x0,0x8(%ebp)
   1177f:	74 2c                	je     117ad <kernel_memset+0x3e>
   11781:	83 7d 10 00          	cmpl   $0x0,0x10(%ebp)
   11785:	74 26                	je     117ad <kernel_memset+0x3e>
    uint8_t *d = (uint8_t *)dest;
   11787:	8b 45 08             	mov    0x8(%ebp),%eax
   1178a:	89 45 fc             	mov    %eax,-0x4(%ebp)
    while (size--)
   1178d:	eb 0f                	jmp    1179e <kernel_memset+0x2f>
        *d++ = v;
   1178f:	8b 45 fc             	mov    -0x4(%ebp),%eax
   11792:	8d 50 01             	lea    0x1(%eax),%edx
   11795:	89 55 fc             	mov    %edx,-0x4(%ebp)
   11798:	0f b6 55 ec          	movzbl -0x14(%ebp),%edx
   1179c:	88 10                	mov    %dl,(%eax)
    while (size--)
   1179e:	8b 45 10             	mov    0x10(%ebp),%eax
   117a1:	8d 50 ff             	lea    -0x1(%eax),%edx
   117a4:	89 55 10             	mov    %edx,0x10(%ebp)
   117a7:	85 c0                	test   %eax,%eax
   117a9:	75 e4                	jne    1178f <kernel_memset+0x20>
   117ab:	eb 01                	jmp    117ae <kernel_memset+0x3f>
        return;
   117ad:	90                   	nop
}
   117ae:	c9                   	leave
   117af:	c3                   	ret

000117b0 <kernel_memcmp>:
int kernel_memcmp(void *d1, void *d2, int size)
{
   117b0:	55                   	push   %ebp
   117b1:	89 e5                	mov    %esp,%ebp
   117b3:	83 ec 10             	sub    $0x10,%esp
    if (!d1 || !d2)
   117b6:	83 7d 08 00          	cmpl   $0x0,0x8(%ebp)
   117ba:	74 06                	je     117c2 <kernel_memcmp+0x12>
   117bc:	83 7d 0c 00          	cmpl   $0x0,0xc(%ebp)
   117c0:	75 07                	jne    117c9 <kernel_memcmp+0x19>
    {
        return 1;
   117c2:	b8 01 00 00 00       	mov    $0x1,%eax
   117c7:	eb 43                	jmp    1180c <kernel_memcmp+0x5c>
    }

    uint8_t *p_d1 = (uint8_t *)d1;
   117c9:	8b 45 08             	mov    0x8(%ebp),%eax
   117cc:	89 45 fc             	mov    %eax,-0x4(%ebp)
    uint8_t *p_d2 = (uint8_t *)d2;
   117cf:	8b 45 0c             	mov    0xc(%ebp),%eax
   117d2:	89 45 f8             	mov    %eax,-0x8(%ebp)
    while (size--)
   117d5:	eb 23                	jmp    117fa <kernel_memcmp+0x4a>
    {
        if (*p_d1++ != *p_d2++)
   117d7:	8b 45 fc             	mov    -0x4(%ebp),%eax
   117da:	8d 50 01             	lea    0x1(%eax),%edx
   117dd:	89 55 fc             	mov    %edx,-0x4(%ebp)
   117e0:	0f b6 08             	movzbl (%eax),%ecx
   117e3:	8b 45 f8             	mov    -0x8(%ebp),%eax
   117e6:	8d 50 01             	lea    0x1(%eax),%edx
   117e9:	89 55 f8             	mov    %edx,-0x8(%ebp)
   117ec:	0f b6 00             	movzbl (%eax),%eax
   117ef:	38 c1                	cmp    %al,%cl
   117f1:	74 07                	je     117fa <kernel_memcmp+0x4a>
        {
            return 1;
   117f3:	b8 01 00 00 00       	mov    $0x1,%eax
   117f8:	eb 12                	jmp    1180c <kernel_memcmp+0x5c>
    while (size--)
   117fa:	8b 45 10             	mov    0x10(%ebp),%eax
   117fd:	8d 50 ff             	lea    -0x1(%eax),%edx
   11800:	89 55 10             	mov    %edx,0x10(%ebp)
   11803:	85 c0                	test   %eax,%eax
   11805:	75 d0                	jne    117d7 <kernel_memcmp+0x27>
        }
    }
    return 0;
   11807:	b8 00 00 00 00       	mov    $0x0,%eax
}
   1180c:	c9                   	leave
   1180d:	c3                   	ret

0001180e <kernel_sprintf>:

void kernel_sprintf(char *buffer, const char *fmt, ...)
{
   1180e:	55                   	push   %ebp
   1180f:	89 e5                	mov    %esp,%ebp
   11811:	83 ec 18             	sub    $0x18,%esp
    va_list args;
    va_start(args, fmt);
   11814:	8d 45 10             	lea    0x10(%ebp),%eax
   11817:	89 45 f4             	mov    %eax,-0xc(%ebp)

    kernel_vsprintf(buffer, fmt, args);
   1181a:	8b 45 f4             	mov    -0xc(%ebp),%eax
   1181d:	83 ec 04             	sub    $0x4,%esp
   11820:	50                   	push   %eax
   11821:	ff 75 0c             	push   0xc(%ebp)
   11824:	ff 75 08             	push   0x8(%ebp)
   11827:	e8 dd 00 00 00       	call   11909 <kernel_vsprintf>
   1182c:	83 c4 10             	add    $0x10,%esp
    va_end(args);
}
   1182f:	90                   	nop
   11830:	c9                   	leave
   11831:	c3                   	ret

00011832 <kernel_itoa>:

void kernel_itoa(char *buf, int num, int base)
{
   11832:	55                   	push   %ebp
   11833:	89 e5                	mov    %esp,%ebp
   11835:	83 ec 10             	sub    $0x10,%esp
    static const char *num2ch = {"FEDCBA9876543210123456789ABCDEF"};
    char *p = buf;
   11838:	8b 45 08             	mov    0x8(%ebp),%eax
   1183b:	89 45 fc             	mov    %eax,-0x4(%ebp)
    int old_num = num;
   1183e:	8b 45 0c             	mov    0xc(%ebp),%eax
   11841:	89 45 f4             	mov    %eax,-0xc(%ebp)
    if ((base != 2) && (base != 8) && (base != 10) && (base != 16))
   11844:	83 7d 10 02          	cmpl   $0x2,0x10(%ebp)
   11848:	74 1d                	je     11867 <kernel_itoa+0x35>
   1184a:	83 7d 10 08          	cmpl   $0x8,0x10(%ebp)
   1184e:	74 17                	je     11867 <kernel_itoa+0x35>
   11850:	83 7d 10 0a          	cmpl   $0xa,0x10(%ebp)
   11854:	74 11                	je     11867 <kernel_itoa+0x35>
   11856:	83 7d 10 10          	cmpl   $0x10,0x10(%ebp)
   1185a:	74 0b                	je     11867 <kernel_itoa+0x35>
    {
        *p = '\0';
   1185c:	8b 45 fc             	mov    -0x4(%ebp),%eax
   1185f:	c6 00 00             	movb   $0x0,(%eax)
        return;
   11862:	e9 a0 00 00 00       	jmp    11907 <kernel_itoa+0xd5>
    }
    if ((num < 0) && (base == 10))
   11867:	83 7d 0c 00          	cmpl   $0x0,0xc(%ebp)
   1186b:	79 12                	jns    1187f <kernel_itoa+0x4d>
   1186d:	83 7d 10 0a          	cmpl   $0xa,0x10(%ebp)
   11871:	75 0c                	jne    1187f <kernel_itoa+0x4d>
    {
        *p++ = '-';
   11873:	8b 45 fc             	mov    -0x4(%ebp),%eax
   11876:	8d 50 01             	lea    0x1(%eax),%edx
   11879:	89 55 fc             	mov    %edx,-0x4(%ebp)
   1187c:	c6 00 2d             	movb   $0x2d,(%eax)
    }
    do
    {
        char ch = num2ch[num % base + 15];
   1187f:	8b 0d 84 21 01 00    	mov    0x12184,%ecx
   11885:	8b 45 0c             	mov    0xc(%ebp),%eax
   11888:	99                   	cltd
   11889:	f7 7d 10             	idivl  0x10(%ebp)
   1188c:	89 d0                	mov    %edx,%eax
   1188e:	83 c0 0f             	add    $0xf,%eax
   11891:	01 c8                	add    %ecx,%eax
   11893:	0f b6 00             	movzbl (%eax),%eax
   11896:	88 45 f3             	mov    %al,-0xd(%ebp)
        *p++ = ch;
   11899:	8b 45 fc             	mov    -0x4(%ebp),%eax
   1189c:	8d 50 01             	lea    0x1(%eax),%edx
   1189f:	89 55 fc             	mov    %edx,-0x4(%ebp)
   118a2:	0f b6 55 f3          	movzbl -0xd(%ebp),%edx
   118a6:	88 10                	mov    %dl,(%eax)
        num /= base;
   118a8:	8b 45 0c             	mov    0xc(%ebp),%eax
   118ab:	99                   	cltd
   118ac:	f7 7d 10             	idivl  0x10(%ebp)
   118af:	89 45 0c             	mov    %eax,0xc(%ebp)
    } while (num);
   118b2:	83 7d 0c 00          	cmpl   $0x0,0xc(%ebp)
   118b6:	75 c7                	jne    1187f <kernel_itoa+0x4d>
    *p-- = '\0';
   118b8:	8b 45 fc             	mov    -0x4(%ebp),%eax
   118bb:	8d 50 ff             	lea    -0x1(%eax),%edx
   118be:	89 55 fc             	mov    %edx,-0x4(%ebp)
   118c1:	c6 00 00             	movb   $0x0,(%eax)
    char *start = (old_num > 0) ? buf : buf + 1;
   118c4:	83 7d f4 00          	cmpl   $0x0,-0xc(%ebp)
   118c8:	7f 08                	jg     118d2 <kernel_itoa+0xa0>
   118ca:	8b 45 08             	mov    0x8(%ebp),%eax
   118cd:	83 c0 01             	add    $0x1,%eax
   118d0:	eb 03                	jmp    118d5 <kernel_itoa+0xa3>
   118d2:	8b 45 08             	mov    0x8(%ebp),%eax
   118d5:	89 45 f8             	mov    %eax,-0x8(%ebp)
    while (start < p)
   118d8:	eb 25                	jmp    118ff <kernel_itoa+0xcd>
    {
        char ch = *start;
   118da:	8b 45 f8             	mov    -0x8(%ebp),%eax
   118dd:	0f b6 00             	movzbl (%eax),%eax
   118e0:	88 45 f2             	mov    %al,-0xe(%ebp)
        *start = *p;
   118e3:	8b 45 fc             	mov    -0x4(%ebp),%eax
   118e6:	0f b6 10             	movzbl (%eax),%edx
   118e9:	8b 45 f8             	mov    -0x8(%ebp),%eax
   118ec:	88 10                	mov    %dl,(%eax)
        *p = ch;
   118ee:	8b 45 fc             	mov    -0x4(%ebp),%eax
   118f1:	0f b6 55 f2          	movzbl -0xe(%ebp),%edx
   118f5:	88 10                	mov    %dl,(%eax)

        p--;
   118f7:	83 6d fc 01          	subl   $0x1,-0x4(%ebp)
        start++;
   118fb:	83 45 f8 01          	addl   $0x1,-0x8(%ebp)
    while (start < p)
   118ff:	8b 45 f8             	mov    -0x8(%ebp),%eax
   11902:	3b 45 fc             	cmp    -0x4(%ebp),%eax
   11905:	72 d3                	jb     118da <kernel_itoa+0xa8>
    }
}
   11907:	c9                   	leave
   11908:	c3                   	ret

00011909 <kernel_vsprintf>:

void kernel_vsprintf(char *buffer, const char *fmt, va_list args)
{
   11909:	55                   	push   %ebp
   1190a:	89 e5                	mov    %esp,%ebp
   1190c:	83 ec 20             	sub    $0x20,%esp
    enum
    {
        NORMAL,
        READ_FMT
    } state = NORMAL;
   1190f:	c7 45 fc 00 00 00 00 	movl   $0x0,-0x4(%ebp)
    char ch;
    char *curr = buffer;
   11916:	8b 45 08             	mov    0x8(%ebp),%eax
   11919:	89 45 f8             	mov    %eax,-0x8(%ebp)
    while ((ch = *fmt++))
   1191c:	e9 11 01 00 00       	jmp    11a32 <kernel_vsprintf+0x129>
    {
        switch (state)
   11921:	83 7d fc 00          	cmpl   $0x0,-0x4(%ebp)
   11925:	74 0b                	je     11932 <kernel_vsprintf+0x29>
   11927:	83 7d fc 01          	cmpl   $0x1,-0x4(%ebp)
   1192b:	74 2b                	je     11958 <kernel_vsprintf+0x4f>
   1192d:	e9 00 01 00 00       	jmp    11a32 <kernel_vsprintf+0x129>
        {
        // 普通字符
        case NORMAL:
            if (ch == '%')
   11932:	80 7d ef 25          	cmpb   $0x25,-0x11(%ebp)
   11936:	75 0c                	jne    11944 <kernel_vsprintf+0x3b>
            {
                state = READ_FMT;
   11938:	c7 45 fc 01 00 00 00 	movl   $0x1,-0x4(%ebp)
   1193f:	e9 ee 00 00 00       	jmp    11a32 <kernel_vsprintf+0x129>
            }
            else
            {
                *curr++ = ch;
   11944:	8b 45 f8             	mov    -0x8(%ebp),%eax
   11947:	8d 50 01             	lea    0x1(%eax),%edx
   1194a:	89 55 f8             	mov    %edx,-0x8(%ebp)
   1194d:	0f b6 55 ef          	movzbl -0x11(%ebp),%edx
   11951:	88 10                	mov    %dl,(%eax)
            }
            break;
   11953:	e9 da 00 00 00       	jmp    11a32 <kernel_vsprintf+0x129>
        // 格式化控制字符，只支持部分
        case READ_FMT:
            if (ch == 'd')
   11958:	80 7d ef 64          	cmpb   $0x64,-0x11(%ebp)
   1195c:	75 31                	jne    1198f <kernel_vsprintf+0x86>
            {
                int num = va_arg(args, int);
   1195e:	8b 45 10             	mov    0x10(%ebp),%eax
   11961:	8d 50 04             	lea    0x4(%eax),%edx
   11964:	89 55 10             	mov    %edx,0x10(%ebp)
   11967:	8b 00                	mov    (%eax),%eax
   11969:	89 45 e4             	mov    %eax,-0x1c(%ebp)
                kernel_itoa(curr, num, 10);
   1196c:	6a 0a                	push   $0xa
   1196e:	ff 75 e4             	push   -0x1c(%ebp)
   11971:	ff 75 f8             	push   -0x8(%ebp)
   11974:	e8 b9 fe ff ff       	call   11832 <kernel_itoa>
   11979:	83 c4 0c             	add    $0xc,%esp
                curr += kernel_strlen(curr);
   1197c:	ff 75 f8             	push   -0x8(%ebp)
   1197f:	e8 61 fd ff ff       	call   116e5 <kernel_strlen>
   11984:	83 c4 04             	add    $0x4,%esp
   11987:	01 45 f8             	add    %eax,-0x8(%ebp)
   1198a:	e9 9b 00 00 00       	jmp    11a2a <kernel_vsprintf+0x121>
            }
            else if (ch == 'x')
   1198f:	80 7d ef 78          	cmpb   $0x78,-0x11(%ebp)
   11993:	75 2e                	jne    119c3 <kernel_vsprintf+0xba>
            {
                int num = va_arg(args, int);
   11995:	8b 45 10             	mov    0x10(%ebp),%eax
   11998:	8d 50 04             	lea    0x4(%eax),%edx
   1199b:	89 55 10             	mov    %edx,0x10(%ebp)
   1199e:	8b 00                	mov    (%eax),%eax
   119a0:	89 45 e8             	mov    %eax,-0x18(%ebp)
                kernel_itoa(curr, num, 16);
   119a3:	6a 10                	push   $0x10
   119a5:	ff 75 e8             	push   -0x18(%ebp)
   119a8:	ff 75 f8             	push   -0x8(%ebp)
   119ab:	e8 82 fe ff ff       	call   11832 <kernel_itoa>
   119b0:	83 c4 0c             	add    $0xc,%esp
                curr += kernel_strlen(curr);
   119b3:	ff 75 f8             	push   -0x8(%ebp)
   119b6:	e8 2a fd ff ff       	call   116e5 <kernel_strlen>
   119bb:	83 c4 04             	add    $0x4,%esp
   119be:	01 45 f8             	add    %eax,-0x8(%ebp)
   119c1:	eb 67                	jmp    11a2a <kernel_vsprintf+0x121>
            }
            else if (ch == 'c')
   119c3:	80 7d ef 63          	cmpb   $0x63,-0x11(%ebp)
   119c7:	75 19                	jne    119e2 <kernel_vsprintf+0xd9>
            {
                char c = va_arg(args, int);
   119c9:	8b 45 10             	mov    0x10(%ebp),%eax
   119cc:	8d 50 04             	lea    0x4(%eax),%edx
   119cf:	89 55 10             	mov    %edx,0x10(%ebp)
   119d2:	8b 00                	mov    (%eax),%eax
   119d4:	88 45 ee             	mov    %al,-0x12(%ebp)
                *curr = c;
   119d7:	8b 45 f8             	mov    -0x8(%ebp),%eax
   119da:	0f b6 55 ee          	movzbl -0x12(%ebp),%edx
   119de:	88 10                	mov    %dl,(%eax)
   119e0:	eb 48                	jmp    11a2a <kernel_vsprintf+0x121>
            }
            else if (ch == 's')
   119e2:	80 7d ef 73          	cmpb   $0x73,-0x11(%ebp)
   119e6:	75 42                	jne    11a2a <kernel_vsprintf+0x121>
            {
                const char *str = va_arg(args, char *);
   119e8:	8b 45 10             	mov    0x10(%ebp),%eax
   119eb:	8d 50 04             	lea    0x4(%eax),%edx
   119ee:	89 55 10             	mov    %edx,0x10(%ebp)
   119f1:	8b 00                	mov    (%eax),%eax
   119f3:	89 45 f4             	mov    %eax,-0xc(%ebp)
                int len = kernel_strlen(str);
   119f6:	ff 75 f4             	push   -0xc(%ebp)
   119f9:	e8 e7 fc ff ff       	call   116e5 <kernel_strlen>
   119fe:	83 c4 04             	add    $0x4,%esp
   11a01:	89 45 f0             	mov    %eax,-0x10(%ebp)
                while (len--)
   11a04:	eb 17                	jmp    11a1d <kernel_vsprintf+0x114>
                {
                    *curr++ = *str++;
   11a06:	8b 55 f4             	mov    -0xc(%ebp),%edx
   11a09:	8d 42 01             	lea    0x1(%edx),%eax
   11a0c:	89 45 f4             	mov    %eax,-0xc(%ebp)
   11a0f:	8b 45 f8             	mov    -0x8(%ebp),%eax
   11a12:	8d 48 01             	lea    0x1(%eax),%ecx
   11a15:	89 4d f8             	mov    %ecx,-0x8(%ebp)
   11a18:	0f b6 12             	movzbl (%edx),%edx
   11a1b:	88 10                	mov    %dl,(%eax)
                while (len--)
   11a1d:	8b 45 f0             	mov    -0x10(%ebp),%eax
   11a20:	8d 50 ff             	lea    -0x1(%eax),%edx
   11a23:	89 55 f0             	mov    %edx,-0x10(%ebp)
   11a26:	85 c0                	test   %eax,%eax
   11a28:	75 dc                	jne    11a06 <kernel_vsprintf+0xfd>
                }
            }
            state = NORMAL;
   11a2a:	c7 45 fc 00 00 00 00 	movl   $0x0,-0x4(%ebp)
            break;
   11a31:	90                   	nop
    while ((ch = *fmt++))
   11a32:	8b 45 0c             	mov    0xc(%ebp),%eax
   11a35:	8d 50 01             	lea    0x1(%eax),%edx
   11a38:	89 55 0c             	mov    %edx,0xc(%ebp)
   11a3b:	0f b6 00             	movzbl (%eax),%eax
   11a3e:	88 45 ef             	mov    %al,-0x11(%ebp)
   11a41:	80 7d ef 00          	cmpb   $0x0,-0x11(%ebp)
   11a45:	0f 85 d6 fe ff ff    	jne    11921 <kernel_vsprintf+0x18>
        }
    }
}
   11a4b:	90                   	nop
   11a4c:	90                   	nop
   11a4d:	c9                   	leave
   11a4e:	c3                   	ret

00011a4f <pannic>:

void pannic(const char *file, int line, const char *func, const char *cond)
{
   11a4f:	55                   	push   %ebp
   11a50:	89 e5                	mov    %esp,%ebp
   11a52:	83 ec 08             	sub    $0x8,%esp
    log_prinf("assert failed! %s", cond);
   11a55:	83 ec 08             	sub    $0x8,%esp
   11a58:	ff 75 14             	push   0x14(%ebp)
   11a5b:	68 38 21 01 00       	push   $0x12138
   11a60:	e8 c6 02 00 00       	call   11d2b <log_prinf>
   11a65:	83 c4 10             	add    $0x10,%esp
    log_prinf("file:%s\nline:%d\nfunc:%s\n", file, line, func);
   11a68:	ff 75 10             	push   0x10(%ebp)
   11a6b:	ff 75 0c             	push   0xc(%ebp)
   11a6e:	ff 75 08             	push   0x8(%ebp)
   11a71:	68 4a 21 01 00       	push   $0x1214a
   11a76:	e8 b0 02 00 00       	call   11d2b <log_prinf>
   11a7b:	83 c4 10             	add    $0x10,%esp
    for (;;)
    {
        hlt(); // 死机
   11a7e:	e8 24 fb ff ff       	call   115a7 <hlt>
   11a83:	eb f9                	jmp    11a7e <pannic+0x2f>

00011a85 <list_is_empty>:
 * 移除指定链表的头部
 * @param list 操作的链表
 * @return 链表的第一个结点
 */
list_node_t* list_remove_first(list_t *list) {
    // 表项为空，返回空
   11a85:	55                   	push   %ebp
   11a86:	89 e5                	mov    %esp,%ebp
    if (list_is_empty(list)) {
   11a88:	8b 45 08             	mov    0x8(%ebp),%eax
   11a8b:	8b 40 08             	mov    0x8(%eax),%eax
   11a8e:	85 c0                	test   %eax,%eax
   11a90:	0f 94 c0             	sete   %al
   11a93:	0f b6 c0             	movzbl %al,%eax
        return (list_node_t*)0;
   11a96:	5d                   	pop    %ebp
   11a97:	c3                   	ret

00011a98 <list_init>:
void list_init(list_t *list) {
   11a98:	55                   	push   %ebp
   11a99:	89 e5                	mov    %esp,%ebp
    list->first = list->last = (list_node_t *)0;
   11a9b:	8b 45 08             	mov    0x8(%ebp),%eax
   11a9e:	c7 40 04 00 00 00 00 	movl   $0x0,0x4(%eax)
   11aa5:	8b 45 08             	mov    0x8(%ebp),%eax
   11aa8:	8b 50 04             	mov    0x4(%eax),%edx
   11aab:	8b 45 08             	mov    0x8(%ebp),%eax
   11aae:	89 10                	mov    %edx,(%eax)
    list->count = 0;
   11ab0:	8b 45 08             	mov    0x8(%ebp),%eax
   11ab3:	c7 40 08 00 00 00 00 	movl   $0x0,0x8(%eax)
}
   11aba:	90                   	nop
   11abb:	5d                   	pop    %ebp
   11abc:	c3                   	ret

00011abd <list_insert_first>:
void list_insert_first(list_t *list, list_node_t *node) {
   11abd:	55                   	push   %ebp
   11abe:	89 e5                	mov    %esp,%ebp
    node->next = list->first;
   11ac0:	8b 45 08             	mov    0x8(%ebp),%eax
   11ac3:	8b 10                	mov    (%eax),%edx
   11ac5:	8b 45 0c             	mov    0xc(%ebp),%eax
   11ac8:	89 50 04             	mov    %edx,0x4(%eax)
    node->pre = (list_node_t *)0;
   11acb:	8b 45 0c             	mov    0xc(%ebp),%eax
   11ace:	c7 00 00 00 00 00    	movl   $0x0,(%eax)
    if (list_is_empty(list)) {
   11ad4:	ff 75 08             	push   0x8(%ebp)
   11ad7:	e8 a9 ff ff ff       	call   11a85 <list_is_empty>
   11adc:	83 c4 04             	add    $0x4,%esp
   11adf:	85 c0                	test   %eax,%eax
   11ae1:	74 15                	je     11af8 <list_insert_first+0x3b>
        list->last = list->first = node;
   11ae3:	8b 45 08             	mov    0x8(%ebp),%eax
   11ae6:	8b 55 0c             	mov    0xc(%ebp),%edx
   11ae9:	89 10                	mov    %edx,(%eax)
   11aeb:	8b 45 08             	mov    0x8(%ebp),%eax
   11aee:	8b 10                	mov    (%eax),%edx
   11af0:	8b 45 08             	mov    0x8(%ebp),%eax
   11af3:	89 50 04             	mov    %edx,0x4(%eax)
   11af6:	eb 12                	jmp    11b0a <list_insert_first+0x4d>
        list->first->pre = node;
   11af8:	8b 45 08             	mov    0x8(%ebp),%eax
   11afb:	8b 00                	mov    (%eax),%eax
   11afd:	8b 55 0c             	mov    0xc(%ebp),%edx
   11b00:	89 10                	mov    %edx,(%eax)
        list->first = node;
   11b02:	8b 45 08             	mov    0x8(%ebp),%eax
   11b05:	8b 55 0c             	mov    0xc(%ebp),%edx
   11b08:	89 10                	mov    %edx,(%eax)
    list->count++;
   11b0a:	8b 45 08             	mov    0x8(%ebp),%eax
   11b0d:	8b 40 08             	mov    0x8(%eax),%eax
   11b10:	8d 50 01             	lea    0x1(%eax),%edx
   11b13:	8b 45 08             	mov    0x8(%ebp),%eax
   11b16:	89 50 08             	mov    %edx,0x8(%eax)
}
   11b19:	90                   	nop
   11b1a:	c9                   	leave
   11b1b:	c3                   	ret

00011b1c <list_insert_last>:
void list_insert_last(list_t *list, list_node_t *node) {
   11b1c:	55                   	push   %ebp
   11b1d:	89 e5                	mov    %esp,%ebp
    node->pre = list->last;
   11b1f:	8b 45 08             	mov    0x8(%ebp),%eax
   11b22:	8b 50 04             	mov    0x4(%eax),%edx
   11b25:	8b 45 0c             	mov    0xc(%ebp),%eax
   11b28:	89 10                	mov    %edx,(%eax)
    node->next = (list_node_t*)0;
   11b2a:	8b 45 0c             	mov    0xc(%ebp),%eax
   11b2d:	c7 40 04 00 00 00 00 	movl   $0x0,0x4(%eax)
    if (list_is_empty(list)) {
   11b34:	ff 75 08             	push   0x8(%ebp)
   11b37:	e8 49 ff ff ff       	call   11a85 <list_is_empty>
   11b3c:	83 c4 04             	add    $0x4,%esp
   11b3f:	85 c0                	test   %eax,%eax
   11b41:	74 16                	je     11b59 <list_insert_last+0x3d>
        list->first = list->last = node;
   11b43:	8b 45 08             	mov    0x8(%ebp),%eax
   11b46:	8b 55 0c             	mov    0xc(%ebp),%edx
   11b49:	89 50 04             	mov    %edx,0x4(%eax)
   11b4c:	8b 45 08             	mov    0x8(%ebp),%eax
   11b4f:	8b 50 04             	mov    0x4(%eax),%edx
   11b52:	8b 45 08             	mov    0x8(%ebp),%eax
   11b55:	89 10                	mov    %edx,(%eax)
   11b57:	eb 15                	jmp    11b6e <list_insert_last+0x52>
        list->last->next = node;
   11b59:	8b 45 08             	mov    0x8(%ebp),%eax
   11b5c:	8b 40 04             	mov    0x4(%eax),%eax
   11b5f:	8b 55 0c             	mov    0xc(%ebp),%edx
   11b62:	89 50 04             	mov    %edx,0x4(%eax)
        list->last = node;
   11b65:	8b 45 08             	mov    0x8(%ebp),%eax
   11b68:	8b 55 0c             	mov    0xc(%ebp),%edx
   11b6b:	89 50 04             	mov    %edx,0x4(%eax)
    list->count++;
   11b6e:	8b 45 08             	mov    0x8(%ebp),%eax
   11b71:	8b 40 08             	mov    0x8(%eax),%eax
   11b74:	8d 50 01             	lea    0x1(%eax),%edx
   11b77:	8b 45 08             	mov    0x8(%ebp),%eax
   11b7a:	89 50 08             	mov    %edx,0x8(%eax)
}
   11b7d:	90                   	nop
   11b7e:	c9                   	leave
   11b7f:	c3                   	ret

00011b80 <list_remove_first>:
list_node_t* list_remove_first(list_t *list) {
   11b80:	55                   	push   %ebp
   11b81:	89 e5                	mov    %esp,%ebp
   11b83:	83 ec 10             	sub    $0x10,%esp
    if (list_is_empty(list)) {
   11b86:	ff 75 08             	push   0x8(%ebp)
   11b89:	e8 f7 fe ff ff       	call   11a85 <list_is_empty>
   11b8e:	83 c4 04             	add    $0x4,%esp
   11b91:	85 c0                	test   %eax,%eax
   11b93:	74 07                	je     11b9c <list_remove_first+0x1c>
        return (list_node_t*)0;
   11b95:	b8 00 00 00 00       	mov    $0x0,%eax
   11b9a:	eb 5a                	jmp    11bf6 <list_remove_first+0x76>
    }

    // 取第一个结点
    list_node_t * remove_node = list->first;
   11b9c:	8b 45 08             	mov    0x8(%ebp),%eax
   11b9f:	8b 00                	mov    (%eax),%eax
   11ba1:	89 45 fc             	mov    %eax,-0x4(%ebp)

    // 将first往表尾移1个，跳过刚才移过的那个，如果没有后继，则first=0
    list->first = remove_node->next;
   11ba4:	8b 45 fc             	mov    -0x4(%ebp),%eax
   11ba7:	8b 50 04             	mov    0x4(%eax),%edx
   11baa:	8b 45 08             	mov    0x8(%ebp),%eax
   11bad:	89 10                	mov    %edx,(%eax)
    if (list->first == (list_node_t *)0) {
   11baf:	8b 45 08             	mov    0x8(%ebp),%eax
   11bb2:	8b 00                	mov    (%eax),%eax
   11bb4:	85 c0                	test   %eax,%eax
   11bb6:	75 0c                	jne    11bc4 <list_remove_first+0x44>
        // node为最后一个结点
        list->last = (list_node_t*)0;
   11bb8:	8b 45 08             	mov    0x8(%ebp),%eax
   11bbb:	c7 40 04 00 00 00 00 	movl   $0x0,0x4(%eax)
   11bc2:	eb 0c                	jmp    11bd0 <list_remove_first+0x50>
    } else {
        // 非最后一结点，将后继的前驱清0
        remove_node->next->pre = (list_node_t *)0;
   11bc4:	8b 45 fc             	mov    -0x4(%ebp),%eax
   11bc7:	8b 40 04             	mov    0x4(%eax),%eax
   11bca:	c7 00 00 00 00 00    	movl   $0x0,(%eax)
    }

    // 调整node自己，置0，因为没有后继结点
    remove_node->next = remove_node->pre = (list_node_t*)0;
   11bd0:	8b 45 fc             	mov    -0x4(%ebp),%eax
   11bd3:	c7 00 00 00 00 00    	movl   $0x0,(%eax)
   11bd9:	8b 45 fc             	mov    -0x4(%ebp),%eax
   11bdc:	8b 10                	mov    (%eax),%edx
   11bde:	8b 45 fc             	mov    -0x4(%ebp),%eax
   11be1:	89 50 04             	mov    %edx,0x4(%eax)

    // 同时调整计数值
    list->count--;
   11be4:	8b 45 08             	mov    0x8(%ebp),%eax
   11be7:	8b 40 08             	mov    0x8(%eax),%eax
   11bea:	8d 50 ff             	lea    -0x1(%eax),%edx
   11bed:	8b 45 08             	mov    0x8(%ebp),%eax
   11bf0:	89 50 08             	mov    %edx,0x8(%eax)
    return remove_node;
   11bf3:	8b 45 fc             	mov    -0x4(%ebp),%eax
}
   11bf6:	c9                   	leave
   11bf7:	c3                   	ret

00011bf8 <list_remove>:

/**
 * 移除指定链表的中的表项
 * 不检查node是否在结点中
 */
list_node_t * list_remove(list_t *list, list_node_t *remove_node) {
   11bf8:	55                   	push   %ebp
   11bf9:	89 e5                	mov    %esp,%ebp
    // 如果是头，头往前移
    if (remove_node == list->first) {
   11bfb:	8b 45 08             	mov    0x8(%ebp),%eax
   11bfe:	8b 00                	mov    (%eax),%eax
   11c00:	39 45 0c             	cmp    %eax,0xc(%ebp)
   11c03:	75 0b                	jne    11c10 <list_remove+0x18>
        list->first = remove_node->next;
   11c05:	8b 45 0c             	mov    0xc(%ebp),%eax
   11c08:	8b 50 04             	mov    0x4(%eax),%edx
   11c0b:	8b 45 08             	mov    0x8(%ebp),%eax
   11c0e:	89 10                	mov    %edx,(%eax)
    }

    // 如果是尾，则尾往回移
    if (remove_node == list->last) {
   11c10:	8b 45 08             	mov    0x8(%ebp),%eax
   11c13:	8b 40 04             	mov    0x4(%eax),%eax
   11c16:	39 45 0c             	cmp    %eax,0xc(%ebp)
   11c19:	75 0b                	jne    11c26 <list_remove+0x2e>
        list->last = remove_node->pre;
   11c1b:	8b 45 0c             	mov    0xc(%ebp),%eax
   11c1e:	8b 10                	mov    (%eax),%edx
   11c20:	8b 45 08             	mov    0x8(%ebp),%eax
   11c23:	89 50 04             	mov    %edx,0x4(%eax)
    }

    // 如果有前，则调整前的后继
    if (remove_node->pre) {
   11c26:	8b 45 0c             	mov    0xc(%ebp),%eax
   11c29:	8b 00                	mov    (%eax),%eax
   11c2b:	85 c0                	test   %eax,%eax
   11c2d:	74 0e                	je     11c3d <list_remove+0x45>
        remove_node->pre->next = remove_node->next;
   11c2f:	8b 45 0c             	mov    0xc(%ebp),%eax
   11c32:	8b 00                	mov    (%eax),%eax
   11c34:	8b 55 0c             	mov    0xc(%ebp),%edx
   11c37:	8b 52 04             	mov    0x4(%edx),%edx
   11c3a:	89 50 04             	mov    %edx,0x4(%eax)
    }

    // 如果有后，则调整后往前的
    if (remove_node->next) {
   11c3d:	8b 45 0c             	mov    0xc(%ebp),%eax
   11c40:	8b 40 04             	mov    0x4(%eax),%eax
   11c43:	85 c0                	test   %eax,%eax
   11c45:	74 0d                	je     11c54 <list_remove+0x5c>
        remove_node->next->pre = remove_node->pre;
   11c47:	8b 45 0c             	mov    0xc(%ebp),%eax
   11c4a:	8b 40 04             	mov    0x4(%eax),%eax
   11c4d:	8b 55 0c             	mov    0xc(%ebp),%edx
   11c50:	8b 12                	mov    (%edx),%edx
   11c52:	89 10                	mov    %edx,(%eax)
    }

    // 清空node指向
    remove_node->pre = remove_node->next = (list_node_t*)0;
   11c54:	8b 45 0c             	mov    0xc(%ebp),%eax
   11c57:	c7 40 04 00 00 00 00 	movl   $0x0,0x4(%eax)
   11c5e:	8b 45 0c             	mov    0xc(%ebp),%eax
   11c61:	8b 50 04             	mov    0x4(%eax),%edx
   11c64:	8b 45 0c             	mov    0xc(%ebp),%eax
   11c67:	89 10                	mov    %edx,(%eax)
    --list->count;
   11c69:	8b 45 08             	mov    0x8(%ebp),%eax
   11c6c:	8b 40 08             	mov    0x8(%eax),%eax
   11c6f:	8d 50 ff             	lea    -0x1(%eax),%edx
   11c72:	8b 45 08             	mov    0x8(%ebp),%eax
   11c75:	89 50 08             	mov    %edx,0x8(%eax)
    return remove_node;
   11c78:	8b 45 0c             	mov    0xc(%ebp),%eax
}
   11c7b:	5d                   	pop    %ebp
   11c7c:	c3                   	ret

00011c7d <inb>:
    outb(COM1_PORT + 1, 0x00);
    outb(COM1_PORT + 3, 0x80);
    outb(COM1_PORT + 0, 0x3);
    outb(COM1_PORT + 1, 0x00);
    outb(COM1_PORT + 3, 0x03);
    outb(COM1_PORT + 2, 0x07);
   11c7d:	55                   	push   %ebp
   11c7e:	89 e5                	mov    %esp,%ebp
   11c80:	83 ec 14             	sub    $0x14,%esp
   11c83:	8b 45 08             	mov    0x8(%ebp),%eax
   11c86:	66 89 45 ec          	mov    %ax,-0x14(%ebp)
    outb(COM1_PORT + 4, 0x0F);
}
   11c8a:	0f b7 45 ec          	movzwl -0x14(%ebp),%eax
   11c8e:	89 c2                	mov    %eax,%edx
   11c90:	ec                   	in     (%dx),%al
   11c91:	88 45 ff             	mov    %al,-0x1(%ebp)

void log_prinf(const char *fmt, ...)
{
   11c94:	0f b6 45 ff          	movzbl -0x1(%ebp),%eax
    char str_buf[128];
   11c98:	c9                   	leave
   11c99:	c3                   	ret

00011c9a <outb>:
    va_end(args);

    irq_state_t state = irq_enter_protection();
    const char *p = str_buf;
    while (*p != '\0')
    {
   11c9a:	55                   	push   %ebp
   11c9b:	89 e5                	mov    %esp,%ebp
   11c9d:	83 ec 08             	sub    $0x8,%esp
   11ca0:	8b 55 08             	mov    0x8(%ebp),%edx
   11ca3:	8b 45 0c             	mov    0xc(%ebp),%eax
   11ca6:	66 89 55 fc          	mov    %dx,-0x4(%ebp)
   11caa:	88 45 f8             	mov    %al,-0x8(%ebp)
        while ((inb(COM1_PORT + 5) & (1 << 6)) == 0)
   11cad:	0f b7 55 fc          	movzwl -0x4(%ebp),%edx
   11cb1:	0f b6 45 f8          	movzbl -0x8(%ebp),%eax
   11cb5:	ee                   	out    %al,(%dx)
            ;
   11cb6:	90                   	nop
   11cb7:	c9                   	leave
   11cb8:	c3                   	ret

00011cb9 <init_log>:
{
   11cb9:	55                   	push   %ebp
   11cba:	89 e5                	mov    %esp,%ebp
    outb(COM1_PORT + 1, 0x00);
   11cbc:	6a 00                	push   $0x0
   11cbe:	68 f9 03 00 00       	push   $0x3f9
   11cc3:	e8 d2 ff ff ff       	call   11c9a <outb>
   11cc8:	83 c4 08             	add    $0x8,%esp
    outb(COM1_PORT + 3, 0x80);
   11ccb:	68 80 00 00 00       	push   $0x80
   11cd0:	68 fb 03 00 00       	push   $0x3fb
   11cd5:	e8 c0 ff ff ff       	call   11c9a <outb>
   11cda:	83 c4 08             	add    $0x8,%esp
    outb(COM1_PORT + 0, 0x3);
   11cdd:	6a 03                	push   $0x3
   11cdf:	68 f8 03 00 00       	push   $0x3f8
   11ce4:	e8 b1 ff ff ff       	call   11c9a <outb>
   11ce9:	83 c4 08             	add    $0x8,%esp
    outb(COM1_PORT + 1, 0x00);
   11cec:	6a 00                	push   $0x0
   11cee:	68 f9 03 00 00       	push   $0x3f9
   11cf3:	e8 a2 ff ff ff       	call   11c9a <outb>
   11cf8:	83 c4 08             	add    $0x8,%esp
    outb(COM1_PORT + 3, 0x03);
   11cfb:	6a 03                	push   $0x3
   11cfd:	68 fb 03 00 00       	push   $0x3fb
   11d02:	e8 93 ff ff ff       	call   11c9a <outb>
   11d07:	83 c4 08             	add    $0x8,%esp
    outb(COM1_PORT + 2, 0x07);
   11d0a:	6a 07                	push   $0x7
   11d0c:	68 fa 03 00 00       	push   $0x3fa
   11d11:	e8 84 ff ff ff       	call   11c9a <outb>
   11d16:	83 c4 08             	add    $0x8,%esp
    outb(COM1_PORT + 4, 0x0F);
   11d19:	6a 0f                	push   $0xf
   11d1b:	68 fc 03 00 00       	push   $0x3fc
   11d20:	e8 75 ff ff ff       	call   11c9a <outb>
   11d25:	83 c4 08             	add    $0x8,%esp
}
   11d28:	90                   	nop
   11d29:	c9                   	leave
   11d2a:	c3                   	ret

00011d2b <log_prinf>:
{
   11d2b:	55                   	push   %ebp
   11d2c:	89 e5                	mov    %esp,%ebp
   11d2e:	81 ec 98 00 00 00    	sub    $0x98,%esp
    kernel_memset(str_buf, '\0', sizeof(str_buf));
   11d34:	83 ec 04             	sub    $0x4,%esp
   11d37:	68 80 00 00 00       	push   $0x80
   11d3c:	6a 00                	push   $0x0
   11d3e:	8d 85 70 ff ff ff    	lea    -0x90(%ebp),%eax
   11d44:	50                   	push   %eax
   11d45:	e8 25 fa ff ff       	call   1176f <kernel_memset>
   11d4a:	83 c4 10             	add    $0x10,%esp
    va_start(args, fmt);
   11d4d:	8d 45 0c             	lea    0xc(%ebp),%eax
   11d50:	89 85 6c ff ff ff    	mov    %eax,-0x94(%ebp)
    kernel_vsprintf(str_buf, fmt, args);
   11d56:	8b 85 6c ff ff ff    	mov    -0x94(%ebp),%eax
   11d5c:	83 ec 04             	sub    $0x4,%esp
   11d5f:	50                   	push   %eax
   11d60:	ff 75 08             	push   0x8(%ebp)
   11d63:	8d 85 70 ff ff ff    	lea    -0x90(%ebp),%eax
   11d69:	50                   	push   %eax
   11d6a:	e8 9a fb ff ff       	call   11909 <kernel_vsprintf>
   11d6f:	83 c4 10             	add    $0x10,%esp
    irq_state_t state = irq_enter_protection();
   11d72:	e8 e9 f4 ff ff       	call   11260 <irq_enter_protection>
   11d77:	89 45 f0             	mov    %eax,-0x10(%ebp)
    const char *p = str_buf;
   11d7a:	8d 85 70 ff ff ff    	lea    -0x90(%ebp),%eax
   11d80:	89 45 f4             	mov    %eax,-0xc(%ebp)
    while (*p != '\0')
   11d83:	eb 3b                	jmp    11dc0 <log_prinf+0x95>
        while ((inb(COM1_PORT + 5) & (1 << 6)) == 0)
   11d85:	90                   	nop
   11d86:	83 ec 0c             	sub    $0xc,%esp
   11d89:	68 fd 03 00 00       	push   $0x3fd
   11d8e:	e8 ea fe ff ff       	call   11c7d <inb>
   11d93:	83 c4 10             	add    $0x10,%esp
   11d96:	0f b6 c0             	movzbl %al,%eax
   11d99:	83 e0 40             	and    $0x40,%eax
   11d9c:	85 c0                	test   %eax,%eax
   11d9e:	74 e6                	je     11d86 <log_prinf+0x5b>
        outb(COM1_PORT, *p++);
   11da0:	8b 45 f4             	mov    -0xc(%ebp),%eax
   11da3:	8d 50 01             	lea    0x1(%eax),%edx
   11da6:	89 55 f4             	mov    %edx,-0xc(%ebp)
   11da9:	0f b6 00             	movzbl (%eax),%eax
   11dac:	0f b6 c0             	movzbl %al,%eax
   11daf:	83 ec 08             	sub    $0x8,%esp
   11db2:	50                   	push   %eax
   11db3:	68 f8 03 00 00       	push   $0x3f8
   11db8:	e8 dd fe ff ff       	call   11c9a <outb>
   11dbd:	83 c4 10             	add    $0x10,%esp
    while (*p != '\0')
   11dc0:	8b 45 f4             	mov    -0xc(%ebp),%eax
   11dc3:	0f b6 00             	movzbl (%eax),%eax
   11dc6:	84 c0                	test   %al,%al
   11dc8:	75 bb                	jne    11d85 <log_prinf+0x5a>
    }

    // 输出完成后换行，回车
    outb(COM1_PORT, '\r');
   11dca:	83 ec 08             	sub    $0x8,%esp
   11dcd:	6a 0d                	push   $0xd
   11dcf:	68 f8 03 00 00       	push   $0x3f8
   11dd4:	e8 c1 fe ff ff       	call   11c9a <outb>
   11dd9:	83 c4 10             	add    $0x10,%esp
    outb(COM1_PORT, '\n');
   11ddc:	83 ec 08             	sub    $0x8,%esp
   11ddf:	6a 0a                	push   $0xa
   11de1:	68 f8 03 00 00       	push   $0x3f8
   11de6:	e8 af fe ff ff       	call   11c9a <outb>
   11deb:	83 c4 10             	add    $0x10,%esp
    irq_leave_protection(state);
   11dee:	83 ec 0c             	sub    $0xc,%esp
   11df1:	ff 75 f0             	push   -0x10(%ebp)
   11df4:	e8 7f f4 ff ff       	call   11278 <irq_leave_protection>
   11df9:	83 c4 10             	add    $0x10,%esp
}
   11dfc:	90                   	nop
   11dfd:	c9                   	leave
   11dfe:	c3                   	ret
